---
triple:          'arm64-apple-darwin'
binary-path:     28_findIndexOfFirstOccurence
relocations:
  - { offset: 0x68, size: 0x8, addend: 0x0, symName: '__ZN3std2rt10lang_start28_$u7b$$u7b$closure$u7d$$u7d$17hf021b73c605ba2aaE', symObjAddr: 0x17C, symBinAddr: 0x10000211C, symSize: 0x3C }
  - { offset: 0xDB, size: 0x8, addend: 0x0, symName: __ZN3std2rt10lang_start17h7cd65fd45b8bfa33E, symObjAddr: 0x110, symBinAddr: 0x1000020B0, symSize: 0x6C }
  - { offset: 0x170, size: 0x8, addend: 0x0, symName: '__ZN54_$LT$$LP$$RP$$u20$as$u20$std..process..Termination$GT$6report17hbf4c0f436978a174E', symObjAddr: 0x1648, symBinAddr: 0x1000035C8, symSize: 0x10 }
  - { offset: 0x1F8, size: 0x8, addend: 0x0, symName: __ZN3std3sys9backtrace28__rust_begin_short_backtrace17h3daa9d4635752803E, symObjAddr: 0x1B8, symBinAddr: 0x100002158, symSize: 0x24 }
  - { offset: 0x521, size: 0x8, addend: 0x0, symName: '__ZN4core3cmp5impls50_$LT$impl$u20$core..cmp..Ord$u20$for$u20$usize$GT$3cmp17h6b64f59600bd2af9E', symObjAddr: 0x420, symBinAddr: 0x1000023B0, symSize: 0x38 }
  - { offset: 0x564, size: 0x8, addend: 0x0, symName: '__ZN4core3cmp5impls55_$LT$impl$u20$core..cmp..PartialEq$u20$for$u20$char$GT$2eq17h1cf8e9cd181b7536E', symObjAddr: 0x458, symBinAddr: 0x1000023E8, symSize: 0x2C }
  - { offset: 0x5FD, size: 0x8, addend: 0x0, symName: __ZN4core3cmp6min_by17ha5d5c373e08c66d1E, symObjAddr: 0x484, symBinAddr: 0x100002414, symSize: 0xC8 }
  - { offset: 0x660, size: 0x8, addend: 0x0, symName: __ZN4core3cmp9PartialEq2ne17hc5aa675acc96ccb9E, symObjAddr: 0x54C, symBinAddr: 0x1000024DC, symSize: 0x30 }
  - { offset: 0xEB9, size: 0x8, addend: 0x0, symName: '__ZN4core3ptr9const_ptr33_$LT$impl$u20$$BP$const$u20$T$GT$7sub_ptr18precondition_check17h55c2fe36444e7621E', symObjAddr: 0x858, symBinAddr: 0x1000027D8, symSize: 0x40 }
  - { offset: 0x10F8, size: 0x8, addend: 0x0, symName: '__ZN4core3ptr42drop_in_place$LT$alloc..string..String$GT$17h22c85dd9f36611b2E', symObjAddr: 0x780, symBinAddr: 0x100002710, symSize: 0x24 }
  - { offset: 0x1127, size: 0x8, addend: 0x0, symName: '__ZN4core3ptr46drop_in_place$LT$alloc..vec..Vec$LT$u8$GT$$GT$17h1c179fc73d6e5651E', symObjAddr: 0x7A4, symBinAddr: 0x100002734, symSize: 0x5C }
  - { offset: 0x1156, size: 0x8, addend: 0x0, symName: '__ZN4core3ptr53drop_in_place$LT$alloc..raw_vec..RawVec$LT$u8$GT$$GT$17heb55d3aca2c60930E', symObjAddr: 0x800, symBinAddr: 0x100002790, symSize: 0x24 }
  - { offset: 0x1185, size: 0x8, addend: 0x0, symName: '__ZN4core3ptr71drop_in_place$LT$core..array..iter..IntoIter$LT$bool$C$32_usize$GT$$GT$17h3ea5f96466252a82E', symObjAddr: 0x824, symBinAddr: 0x1000027B4, symSize: 0x24 }
  - { offset: 0x13FD, size: 0x8, addend: 0x0, symName: '__ZN4core3ops9try_trait26NeverShortCircuit$LT$T$GT$10wrap_mut_228_$u7b$$u7b$closure$u7d$$u7d$17h4c339c8b13518194E', symObjAddr: 0x754, symBinAddr: 0x1000026E4, symSize: 0x2C }
  - { offset: 0x1489, size: 0x8, addend: 0x0, symName: '__ZN94_$LT$core..ops..try_trait..NeverShortCircuit$LT$T$GT$$u20$as$u20$core..ops..try_trait..Try$GT$11from_output17hffcc1baddbe83a02E', symObjAddr: 0x2480, symBinAddr: 0x100004400, symSize: 0x10 }
  - { offset: 0x14C0, size: 0x8, addend: 0x0, symName: '__ZN94_$LT$core..ops..try_trait..NeverShortCircuit$LT$T$GT$$u20$as$u20$core..ops..try_trait..Try$GT$6branch17h43d1c4e9904a0f9aE', symObjAddr: 0x2490, symBinAddr: 0x100004410, symSize: 0x18 }
  - { offset: 0x15F9, size: 0x8, addend: 0x0, symName: '__ZN93_$LT$core..ops..index_range..IndexRange$u20$as$u20$core..iter..traits..iterator..Iterator$GT$4next17h489a46a440d483f9E', symObjAddr: 0x2394, symBinAddr: 0x100004314, symSize: 0xEC }
  - { offset: 0x16ED, size: 0x8, addend: 0x0, symName: '__ZN4core3ops8function6FnOnce40call_once$u7b$$u7b$vtable.shim$u7d$$u7d$17hc25078425910a68eE', symObjAddr: 0x670, symBinAddr: 0x100002600, symSize: 0x28 }
  - { offset: 0x1731, size: 0x8, addend: 0x0, symName: __ZN4core3ops8function6FnOnce9call_once17h04d49af9e7dd6e4bE, symObjAddr: 0x698, symBinAddr: 0x100002628, symSize: 0x2C }
  - { offset: 0x1775, size: 0x8, addend: 0x0, symName: __ZN4core3ops8function6FnOnce9call_once17h21bf4f580aa3be0dE, symObjAddr: 0x6C4, symBinAddr: 0x100002654, symSize: 0x24 }
  - { offset: 0x17B9, size: 0x8, addend: 0x0, symName: __ZN4core3ops8function6FnOnce9call_once17h5f41d7635a8f270bE, symObjAddr: 0x6E8, symBinAddr: 0x100002678, symSize: 0x4C }
  - { offset: 0x17FD, size: 0x8, addend: 0x0, symName: __ZN4core3ops8function6FnOnce9call_once17h9319c92569d8b7fdE, symObjAddr: 0x734, symBinAddr: 0x1000026C4, symSize: 0x20 }
  - { offset: 0x1BB5, size: 0x8, addend: 0x0, symName: '__ZN4core3num23_$LT$impl$u20$usize$GT$13unchecked_add18precondition_check17hae4c01c6c3ce2daaE', symObjAddr: 0x5D0, symBinAddr: 0x100002560, symSize: 0x4C }
  - { offset: 0x1C5C, size: 0x8, addend: 0x0, symName: '__ZN4core3num23_$LT$impl$u20$usize$GT$13unchecked_sub18precondition_check17hf66053207bb3accfE', symObjAddr: 0x61C, symBinAddr: 0x1000025AC, symSize: 0x54 }
  - { offset: 0x1F2E, size: 0x8, addend: 0x0, symName: '__ZN104_$LT$core..ops..index_range..IndexRange$u20$as$u20$core..slice..index..SliceIndex$LT$$u5b$T$u5d$$GT$$GT$17get_unchecked_mut17h0247e18a72f63ec7E', symObjAddr: 0x8, symBinAddr: 0x100001FA8, symSize: 0xC8 }
  - { offset: 0x2080, size: 0x8, addend: 0x0, symName: '__ZN104_$LT$core..ops..index_range..IndexRange$u20$as$u20$core..slice..index..SliceIndex$LT$$u5b$T$u5d$$GT$$GT$17get_unchecked_mut18precondition_check17h6a0aa58725c64a0aE', symObjAddr: 0xD0, symBinAddr: 0x100002070, symSize: 0x40 }
  - { offset: 0x20C2, size: 0x8, addend: 0x0, symName: '__ZN75_$LT$usize$u20$as$u20$core..slice..index..SliceIndex$LT$$u5b$T$u5d$$GT$$GT$13get_unchecked18precondition_check17heffed373e1c299aeE', symObjAddr: 0x18E8, symBinAddr: 0x100003868, symSize: 0x40 }
  - { offset: 0x235D, size: 0x8, addend: 0x0, symName: '__ZN91_$LT$core..slice..iter..Iter$LT$T$GT$$u20$as$u20$core..iter..traits..iterator..Iterator$GT$10advance_by17he4305918708b4606E', symObjAddr: 0x20FC, symBinAddr: 0x10000407C, symSize: 0x100 }
  - { offset: 0x2532, size: 0x8, addend: 0x0, symName: '__ZN91_$LT$core..slice..iter..Iter$LT$T$GT$$u20$as$u20$core..iter..traits..iterator..Iterator$GT$4next17h85758c90e8d1cb46E', symObjAddr: 0x21FC, symBinAddr: 0x10000417C, symSize: 0xCC }
  - { offset: 0x2693, size: 0x8, addend: 0x0, symName: '__ZN91_$LT$core..slice..iter..Iter$LT$T$GT$$u20$as$u20$core..iter..traits..iterator..Iterator$GT$4next17hbe426ce59ecc850dE', symObjAddr: 0x22C8, symBinAddr: 0x100004248, symSize: 0xCC }
  - { offset: 0x289D, size: 0x8, addend: 0x0, symName: '__ZN4core5slice29_$LT$impl$u20$$u5b$T$u5d$$GT$12array_chunks17h57d5f0567c638e15E', symObjAddr: 0xE3C, symBinAddr: 0x100002DBC, symSize: 0xDC }
  - { offset: 0x2A57, size: 0x8, addend: 0x0, symName: '__ZN4core5slice29_$LT$impl$u20$$u5b$T$u5d$$GT$18split_at_unchecked17h346c5bb9be619261E', symObjAddr: 0xF18, symBinAddr: 0x100002E98, symSize: 0xDC }
  - { offset: 0x2BBC, size: 0x8, addend: 0x0, symName: '__ZN4core5slice29_$LT$impl$u20$$u5b$T$u5d$$GT$18split_at_unchecked18precondition_check17h8d34b31d83769c39E', symObjAddr: 0xFF4, symBinAddr: 0x100002F74, symSize: 0x40 }
  - { offset: 0x2C1A, size: 0x8, addend: 0x0, symName: '__ZN4core5slice29_$LT$impl$u20$$u5b$T$u5d$$GT$19as_chunks_unchecked17h39146014f2e5a591E', symObjAddr: 0x1034, symBinAddr: 0x100002FB4, symSize: 0xA0 }
  - { offset: 0x2D21, size: 0x8, addend: 0x0, symName: '__ZN4core5slice29_$LT$impl$u20$$u5b$T$u5d$$GT$19as_chunks_unchecked18precondition_check17hf151578d73ebc2c9E', symObjAddr: 0x10D4, symBinAddr: 0x100003054, symSize: 0x88 }
  - { offset: 0x2D58, size: 0x8, addend: 0x0, symName: '__ZN4core5slice29_$LT$impl$u20$$u5b$T$u5d$$GT$9as_chunks17h5c5cb3fd21d2f183E', symObjAddr: 0x115C, symBinAddr: 0x1000030DC, symSize: 0xB0 }
  - { offset: 0x2F21, size: 0x8, addend: 0x0, symName: __ZN4core5slice3raw14from_raw_parts18precondition_check17hae2c0f1fbca671b0E, symObjAddr: 0x120C, symBinAddr: 0x10000318C, symSize: 0x164 }
  - { offset: 0x3111, size: 0x8, addend: 0x0, symName: __ZN4core4hint16assert_unchecked18precondition_check17h31d0cf1d6a5ae864E, symObjAddr: 0xB74, symBinAddr: 0x100002AF4, symSize: 0x38 }
  - { offset: 0x313F, size: 0x8, addend: 0x0, symName: __ZN4core4hint21unreachable_unchecked18precondition_check17h2ea751cc5dfc5db4E, symObjAddr: 0xBAC, symBinAddr: 0x100002B2C, symSize: 0x1C }
  - { offset: 0x318D, size: 0x8, addend: 0x0, symName: '__ZN49_$LT$usize$u20$as$u20$core..iter..range..Step$GT$17forward_unchecked17hfe114001bc7cdf57E', symObjAddr: 0x1DC, symBinAddr: 0x10000217C, symSize: 0x48 }
  - { offset: 0x31F2, size: 0x8, addend: 0x0, symName: '__ZN4core4iter5range101_$LT$impl$u20$core..iter..traits..iterator..Iterator$u20$for$u20$core..ops..range..Range$LT$A$GT$$GT$4next17hd9153a838f7adc8aE', symObjAddr: 0xBC8, symBinAddr: 0x100002B48, symSize: 0x24 }
  - { offset: 0x328C, size: 0x8, addend: 0x0, symName: '__ZN89_$LT$core..ops..range..Range$LT$T$GT$$u20$as$u20$core..iter..range..RangeIteratorImpl$GT$9spec_next17h6d087b6e06ca9a2cE', symObjAddr: 0x2068, symBinAddr: 0x100003FE8, symSize: 0x94 }
  - { offset: 0x3318, size: 0x8, addend: 0x0, symName: __ZN4core4iter6traits8iterator8Iterator3nth17h2d62528d2f476db0E, symObjAddr: 0xBEC, symBinAddr: 0x100002B6C, symSize: 0x84 }
  - { offset: 0x33EB, size: 0x8, addend: 0x0, symName: __ZN4core4iter6traits8iterator8Iterator8try_fold17h3c9bc5f4542075b4E, symObjAddr: 0xC70, symBinAddr: 0x100002BF0, symSize: 0x138 }
  - { offset: 0x34CA, size: 0x8, addend: 0x0, symName: '__ZN53_$LT$u8$u20$as$u20$core..iter..traits..accum..Sum$GT$3sum28_$u7b$$u7b$closure$u7d$$u7d$17hec1598af712c8e8cE', symObjAddr: 0x15FC, symBinAddr: 0x10000357C, symSize: 0x4C }
  - { offset: 0x3551, size: 0x8, addend: 0x0, symName: '__ZN63_$LT$I$u20$as$u20$core..iter..traits..collect..IntoIterator$GT$9into_iter17he059a15525a0c8aaE', symObjAddr: 0x17F8, symBinAddr: 0x100003778, symSize: 0x14 }
  - { offset: 0x35F3, size: 0x8, addend: 0x0, symName: '__ZN4core4iter8adapters3map8map_fold28_$u7b$$u7b$closure$u7d$$u7d$17h70d213ba48b69bbbE', symObjAddr: 0xDA8, symBinAddr: 0x100002D28, symSize: 0x94 }
  - { offset: 0x3C10, size: 0x8, addend: 0x0, symName: '__ZN70_$LT$core..option..Option$LT$T$GT$$u20$as$u20$core..cmp..PartialEq$GT$2eq17hc6a476d857f87ebfE', symObjAddr: 0x1830, symBinAddr: 0x1000037B0, symSize: 0xB8 }
  - { offset: 0x3EF0, size: 0x8, addend: 0x0, symName: __ZN4core6result6Result3Err17hfb94c18efac44a1aE, symObjAddr: 0x1418, symBinAddr: 0x100003398, symSize: 0x18 }
  - { offset: 0x4047, size: 0x8, addend: 0x0, symName: __ZN4core9ub_checks17is_nonoverlapping7runtime17hb01ac751e56ea5ccE, symObjAddr: 0x1430, symBinAddr: 0x1000033B0, symSize: 0xE4 }
  - { offset: 0x41F8, size: 0x8, addend: 0x0, symName: __ZN4core10intrinsics19copy_nonoverlapping18precondition_check17hfd208f16396e5c8dE, symObjAddr: 0x224, symBinAddr: 0x1000021C4, symSize: 0x1EC }
  - { offset: 0x44D8, size: 0x8, addend: 0x0, symName: __ZN4core3str11validations15next_code_point17he9d05ba04301bc52E, symObjAddr: 0x898, symBinAddr: 0x100002818, symSize: 0x20C }
  - { offset: 0x4784, size: 0x8, addend: 0x0, symName: '__ZN4core3str21_$LT$impl$u20$str$GT$5chars17h0444486c1210aa86E', symObjAddr: 0xAA4, symBinAddr: 0x100002A24, symSize: 0x38 }
  - { offset: 0x48EA, size: 0x8, addend: 0x0, symName: '__ZN81_$LT$core..str..iter..Chars$u20$as$u20$core..iter..traits..iterator..Iterator$GT$10advance_by28_$u7b$$u7b$closure$u7d$$u7d$17h3b1c652a222cd05eE', symObjAddr: 0x1F80, symBinAddr: 0x100003F00, symSize: 0x1C }
  - { offset: 0x4921, size: 0x8, addend: 0x0, symName: '__ZN81_$LT$core..str..iter..Chars$u20$as$u20$core..iter..traits..iterator..Iterator$GT$10advance_by17h7d7055e02725b043E', symObjAddr: 0x1978, symBinAddr: 0x1000038F8, symSize: 0x608 }
  - { offset: 0x51D2, size: 0x8, addend: 0x0, symName: '__ZN81_$LT$core..str..iter..Chars$u20$as$u20$core..iter..traits..iterator..Iterator$GT$4next17hd11708fc290c512aE', symObjAddr: 0x1F9C, symBinAddr: 0x100003F1C, symSize: 0x70 }
  - { offset: 0x530A, size: 0x8, addend: 0x0, symName: __ZN4core4char7convert18from_u32_unchecked18precondition_check17h2e689431f3ef3821E, symObjAddr: 0xADC, symBinAddr: 0x100002A5C, symSize: 0x98 }
  - { offset: 0x54A1, size: 0x8, addend: 0x0, symName: '__ZN82_$LT$core..array..iter..IntoIter$LT$T$C$_$GT$$u20$as$u20$core..ops..drop..Drop$GT$4drop17hccb51fbaac1a42f2E', symObjAddr: 0x200C, symBinAddr: 0x100003F8C, symSize: 0x5C }
  - { offset: 0x555D, size: 0x8, addend: 0x0, symName: '__ZN99_$LT$core..array..iter..IntoIter$LT$T$C$_$GT$$u20$as$u20$core..iter..traits..iterator..Iterator$GT$4fold28_$u7b$$u7b$closure$u7d$$u7d$17h03a3eb0797d911e3E', symObjAddr: 0x2538, symBinAddr: 0x1000044B8, symSize: 0x98 }
  - { offset: 0x56DA, size: 0x8, addend: 0x0, symName: '__ZN99_$LT$core..array..iter..IntoIter$LT$T$C$_$GT$$u20$as$u20$core..iter..traits..iterator..Iterator$GT$4fold17h893df4f20e64e4d1E', symObjAddr: 0x24A8, symBinAddr: 0x100004428, symSize: 0x90 }
  - { offset: 0x59F1, size: 0x8, addend: 0x0, symName: __ZN4core3fmt9Arguments6new_v117hae73ec826f538b0dE, symObjAddr: 0x57C, symBinAddr: 0x10000250C, symSize: 0x54 }
  - { offset: 0x5D70, size: 0x8, addend: 0x0, symName: '__ZN4core6option15Option$LT$T$GT$6map_or17h6904ec5e58e28866E', symObjAddr: 0x1370, symBinAddr: 0x1000032F0, symSize: 0xA8 }
  - { offset: 0x60D6, size: 0x8, addend: 0x0, symName: '__ZN52_$LT$T$u20$as$u20$alloc..slice..hack..ConvertVec$GT$6to_vec17h4d21db947ff2a6baE', symObjAddr: 0x1514, symBinAddr: 0x100003494, symSize: 0xE8 }
  - { offset: 0x6434, size: 0x8, addend: 0x0, symName: '__ZN65_$LT$alloc..string..String$u20$as$u20$core..ops..deref..Deref$GT$5deref17hfe064059825fd27cE', symObjAddr: 0x180C, symBinAddr: 0x10000378C, symSize: 0x24 }
  - { offset: 0x6468, size: 0x8, addend: 0x0, symName: '__ZN76_$LT$alloc..string..String$u20$as$u20$core..convert..From$LT$$RF$str$GT$$GT$4from17h0ab115ee008d9c92E', symObjAddr: 0x1928, symBinAddr: 0x1000038A8, symSize: 0x50 }
  - { offset: 0x6806, size: 0x8, addend: 0x0, symName: __ZN5alloc6string6String3len17h2650a64207f102ccE, symObjAddr: 0x1658, symBinAddr: 0x1000035D8, symSize: 0x20 }
  - { offset: 0x6966, size: 0x8, addend: 0x0, symName: __ZN5alloc6string6String6as_str17hb3c527a9743e298aE, symObjAddr: 0x1678, symBinAddr: 0x1000035F8, symSize: 0x88 }
  - { offset: 0x6B71, size: 0x8, addend: 0x0, symName: '__ZN5alloc7raw_vec20RawVecInner$LT$A$GT$16with_capacity_in17h60a7bfde3a7e338aE', symObjAddr: 0x1700, symBinAddr: 0x100003680, symSize: 0xF8 }
  - { offset: 0x7263, size: 0x8, addend: 0x0, symName: __ZN29_28_findIndexOfFirstOccurence4main17h8425e1d06e718db6E, symObjAddr: 0x2934, symBinAddr: 0x1000048B4, symSize: 0x13C }
  - { offset: 0x732C, size: 0x8, addend: 0x0, symName: __ZN29_28_findIndexOfFirstOccurence8Solution7str_str17hd629bb873c054466E, symObjAddr: 0x25D0, symBinAddr: 0x100004550, symSize: 0x364 }
  - { offset: 0x797D, size: 0x8, addend: 0x0, symName: '__ZN5alloc11collections5btree3map25IntoIter$LT$K$C$V$C$A$GT$10dying_next17h792957020d65e57cE', symObjAddr: 0xE02C, symBinAddr: 0x10000F0C4, symSize: 0x224 }
  - { offset: 0x7D64, size: 0x8, addend: 0x0, symName: '__ZN5alloc11collections5btree3map25IntoIter$LT$K$C$V$C$A$GT$10dying_next17hb31974b0eaedc10cE', symObjAddr: 0xE250, symBinAddr: 0x10000F2E8, symSize: 0x224 }
  - { offset: 0x8AB4, size: 0x8, addend: 0x0, symName: '__ZN5alloc7raw_vec19RawVec$LT$T$C$A$GT$8grow_one17h075c6c7443abaefeE', symObjAddr: 0x10450, symBinAddr: 0x10000F908, symSize: 0xB4 }
  - { offset: 0x8C34, size: 0x8, addend: 0x0, symName: '__ZN5alloc7raw_vec19RawVec$LT$T$C$A$GT$8grow_one17h166a1991bc1b1d4bE', symObjAddr: 0x10504, symBinAddr: 0x10000F9BC, symSize: 0xB4 }
  - { offset: 0x8DB4, size: 0x8, addend: 0x0, symName: '__ZN5alloc7raw_vec19RawVec$LT$T$C$A$GT$8grow_one17h26d3c3e0c0035d3aE', symObjAddr: 0x10684, symBinAddr: 0x10000FA70, symSize: 0xB4 }
  - { offset: 0x8F34, size: 0x8, addend: 0x0, symName: '__ZN5alloc7raw_vec19RawVec$LT$T$C$A$GT$8grow_one17h2dcc28b3ce16ceb9E', symObjAddr: 0x10738, symBinAddr: 0x10000FB24, symSize: 0xC8 }
  - { offset: 0x90B4, size: 0x8, addend: 0x0, symName: '__ZN5alloc7raw_vec19RawVec$LT$T$C$A$GT$8grow_one17h34433ccfa33c1548E', symObjAddr: 0x10800, symBinAddr: 0x10000FBEC, symSize: 0xCC }
  - { offset: 0x9234, size: 0x8, addend: 0x0, symName: '__ZN5alloc7raw_vec19RawVec$LT$T$C$A$GT$8grow_one17h39d85b90b601d05aE', symObjAddr: 0x108CC, symBinAddr: 0x10000FCB8, symSize: 0xC8 }
  - { offset: 0x93B4, size: 0x8, addend: 0x0, symName: '__ZN5alloc7raw_vec19RawVec$LT$T$C$A$GT$8grow_one17h3c721d352546eaf3E', symObjAddr: 0x10994, symBinAddr: 0x10000FD80, symSize: 0xCC }
  - { offset: 0x9534, size: 0x8, addend: 0x0, symName: '__ZN5alloc7raw_vec19RawVec$LT$T$C$A$GT$8grow_one17h586e05289c1bd44cE', symObjAddr: 0x10A60, symBinAddr: 0x10000FE4C, symSize: 0xA0 }
  - { offset: 0x965C, size: 0x8, addend: 0x0, symName: '__ZN5alloc7raw_vec19RawVec$LT$T$C$A$GT$8grow_one17h5f91a7a76a6c09aeE', symObjAddr: 0x10B00, symBinAddr: 0x10000FEEC, symSize: 0xCC }
  - { offset: 0x97DC, size: 0x8, addend: 0x0, symName: '__ZN5alloc7raw_vec19RawVec$LT$T$C$A$GT$8grow_one17h80e9c1852df717ecE', symObjAddr: 0x10BCC, symBinAddr: 0x10000FFB8, symSize: 0xD4 }
  - { offset: 0x995C, size: 0x8, addend: 0x0, symName: '__ZN5alloc7raw_vec19RawVec$LT$T$C$A$GT$8grow_one17hc17bf94f7bc0544cE', symObjAddr: 0x10CA0, symBinAddr: 0x10001008C, symSize: 0xB4 }
  - { offset: 0x9ADC, size: 0x8, addend: 0x0, symName: '__ZN5alloc7raw_vec19RawVec$LT$T$C$A$GT$8grow_one17hc3a6727d65a81183E', symObjAddr: 0x10D54, symBinAddr: 0x100010140, symSize: 0xCC }
  - { offset: 0x9C5C, size: 0x8, addend: 0x0, symName: '__ZN5alloc7raw_vec19RawVec$LT$T$C$A$GT$8grow_one17hf967a23dcc49c53fE', symObjAddr: 0x10E20, symBinAddr: 0x10001020C, symSize: 0xB4 }
  - { offset: 0xA3B2, size: 0x8, addend: 0x0, symName: __ZN5alloc7raw_vec11finish_grow17h862ca5a250277ca2E, symObjAddr: 0x103C8, symBinAddr: 0x10000F880, symSize: 0x88 }
  - { offset: 0xA449, size: 0x8, addend: 0x0, symName: '__ZN5alloc7raw_vec20RawVecInner$LT$A$GT$7reserve21do_reserve_and_handle17h5bd7c8b81169b16eE', symObjAddr: 0x10ED4, symBinAddr: 0x100037BE0, symSize: 0xE4 }
  - { offset: 0xB454, size: 0x8, addend: 0x0, symName: '__ZN5alloc4sync16Arc$LT$T$C$A$GT$9drop_slow17h0aa5665700f36d09E', symObjAddr: 0x10054, symBinAddr: 0x10000F50C, symSize: 0x44 }
  - { offset: 0xB553, size: 0x8, addend: 0x0, symName: '__ZN5alloc4sync16Arc$LT$T$C$A$GT$9drop_slow17h387c17a8068f8b46E', symObjAddr: 0x10098, symBinAddr: 0x10000F550, symSize: 0x7C }
  - { offset: 0xB756, size: 0x8, addend: 0x0, symName: '__ZN5alloc4sync16Arc$LT$T$C$A$GT$9drop_slow17h8140ef5e91500a1cE', symObjAddr: 0x10114, symBinAddr: 0x10000F5CC, symSize: 0xC4 }
  - { offset: 0xB9FC, size: 0x8, addend: 0x0, symName: '__ZN5alloc4sync16Arc$LT$T$C$A$GT$9drop_slow17h838bbef7addedadcE', symObjAddr: 0x101D8, symBinAddr: 0x10000F690, symSize: 0xC0 }
  - { offset: 0xBB7F, size: 0x8, addend: 0x0, symName: '__ZN5alloc4sync16Arc$LT$T$C$A$GT$9drop_slow17hd93bb8d0d3f31befE', symObjAddr: 0x10298, symBinAddr: 0x10000F750, symSize: 0xA0 }
  - { offset: 0xBE9C, size: 0x8, addend: 0x0, symName: '__ZN5alloc4sync16Arc$LT$T$C$A$GT$9drop_slow17hf04d07aeddb693f2E', symObjAddr: 0x10338, symBinAddr: 0x10000F7F0, symSize: 0x90 }
  - { offset: 0xC822, size: 0x8, addend: 0x0, symName: '__ZN58_$LT$alloc..string..String$u20$as$u20$core..fmt..Debug$GT$3fmt17hdfa762a84976360aE', symObjAddr: 0xC86C, symBinAddr: 0x10000EEDC, symSize: 0x1C }
  - { offset: 0xC8DC, size: 0x8, addend: 0x0, symName: '__ZN58_$LT$alloc..string..String$u20$as$u20$core..fmt..Write$GT$10write_char17hd93e9ff1698e117fE', symObjAddr: 0xC888, symBinAddr: 0x10000EEF8, symSize: 0x14C }
  - { offset: 0xCB3F, size: 0x8, addend: 0x0, symName: '__ZN58_$LT$alloc..string..String$u20$as$u20$core..fmt..Write$GT$9write_str17h0e58f50c5cceb6ccE', symObjAddr: 0xC9D4, symBinAddr: 0x10000F044, symSize: 0x80 }
  - { offset: 0xCC97, size: 0x8, addend: 0x0, symName: '__ZN60_$LT$alloc..string..String$u20$as$u20$core..fmt..Display$GT$3fmt17hb1770a38898258b9E', symObjAddr: 0x17BD8, symBinAddr: 0x100016EE0, symSize: 0x1C }
  - { offset: 0xE06B, size: 0x8, addend: 0x0, symName: '__ZN4core3ptr101drop_in_place$LT$alloc..sync..Arc$LT$std..sync..mutex..Mutex$LT$alloc..vec..Vec$LT$u8$GT$$GT$$GT$$GT$17he47baf29b04fcdf3E', symObjAddr: 0x18B0, symBinAddr: 0x1000051F0, symSize: 0x30 }
  - { offset: 0xE126, size: 0x8, addend: 0x0, symName: '__ZN4core3ptr104drop_in_place$LT$alloc..vec..Vec$LT$$LP$usize$C$std..backtrace_rs..symbolize..gimli..Mapping$RP$$GT$$GT$17h3724f6026d57679bE', symObjAddr: 0x18E0, symBinAddr: 0x100005220, symSize: 0xC4 }
  - { offset: 0xE31F, size: 0x8, addend: 0x0, symName: '__ZN4core3ptr108drop_in_place$LT$alloc..collections..btree..map..BTreeMap$LT$u64$C$gimli..read..abbrev..Abbreviation$GT$$GT$17hdd51dbb9038dd43cE', symObjAddr: 0x1AE4, symBinAddr: 0x1000052E4, symSize: 0xB0 }
  - { offset: 0xE4F5, size: 0x8, addend: 0x0, symName: '__ZN4core3ptr123drop_in_place$LT$addr2line..Context$LT$gimli..read..endian_slice..EndianSlice$LT$gimli..endianity..LittleEndian$GT$$GT$$GT$17hda46d454f19ff930E', symObjAddr: 0x1C2C, symBinAddr: 0x100005394, symSize: 0x120 }
  - { offset: 0xE808, size: 0x8, addend: 0x0, symName: '__ZN4core3ptr123drop_in_place$LT$addr2line..ResUnit$LT$gimli..read..endian_slice..EndianSlice$LT$gimli..endianity..LittleEndian$GT$$GT$$GT$17h140d0dcd1acd9019E', symObjAddr: 0x1D4C, symBinAddr: 0x1000054B4, symSize: 0xE4 }
  - { offset: 0xE9DD, size: 0x8, addend: 0x0, symName: '__ZN4core3ptr123drop_in_place$LT$addr2line..SupUnit$LT$gimli..read..endian_slice..EndianSlice$LT$gimli..endianity..LittleEndian$GT$$GT$$GT$17h8a819a68b5060ec8E', symObjAddr: 0x1E30, symBinAddr: 0x100005598, symSize: 0x54 }
  - { offset: 0xEA9A, size: 0x8, addend: 0x0, symName: '__ZN4core3ptr130drop_in_place$LT$gimli..read..dwarf..Dwarf$LT$gimli..read..endian_slice..EndianSlice$LT$gimli..endianity..LittleEndian$GT$$GT$$GT$17h7eb35384c5128c5bE', symObjAddr: 0x2028, symBinAddr: 0x1000055EC, symSize: 0x58 }
  - { offset: 0xEB2F, size: 0x8, addend: 0x0, symName: '__ZN4core3ptr137drop_in_place$LT$gimli..read..dwarf..Unit$LT$gimli..read..endian_slice..EndianSlice$LT$gimli..endianity..LittleEndian$GT$$C$usize$GT$$GT$17h3d24796a2679cbf6E', symObjAddr: 0x20F8, symBinAddr: 0x100005644, symSize: 0x54 }
  - { offset: 0xEBFD, size: 0x8, addend: 0x0, symName: '__ZN4core3ptr144drop_in_place$LT$alloc..vec..Vec$LT$core..option..Option$LT$core..option..Option$LT$std..backtrace_rs..symbolize..gimli..Mapping$GT$$GT$$GT$$GT$17h0e8af9afa59793f6E', symObjAddr: 0x214C, symBinAddr: 0x100005698, symSize: 0x10C }
  - { offset: 0xEDBF, size: 0x8, addend: 0x0, symName: '__ZN4core3ptr146drop_in_place$LT$alloc..vec..Vec$LT$addr2line..ResUnit$LT$gimli..read..endian_slice..EndianSlice$LT$gimli..endianity..LittleEndian$GT$$GT$$GT$$GT$17hf181f44a2a3444f1E', symObjAddr: 0x2258, symBinAddr: 0x1000057A4, symSize: 0xC4 }
  - { offset: 0xEF45, size: 0x8, addend: 0x0, symName: '__ZN4core3ptr146drop_in_place$LT$alloc..vec..Vec$LT$addr2line..SupUnit$LT$gimli..read..endian_slice..EndianSlice$LT$gimli..endianity..LittleEndian$GT$$GT$$GT$$GT$17hc91732f1d0903df2E', symObjAddr: 0x231C, symBinAddr: 0x100005868, symSize: 0xF4 }
  - { offset: 0xF14E, size: 0x8, addend: 0x0, symName: '__ZN4core3ptr158drop_in_place$LT$alloc..boxed..Box$LT$$u5b$addr2line..ResUnit$LT$gimli..read..endian_slice..EndianSlice$LT$gimli..endianity..LittleEndian$GT$$GT$$u5d$$GT$$GT$17h4bf939d7a7f1ac07E', symObjAddr: 0x24E0, symBinAddr: 0x10000595C, symSize: 0xB4 }
  - { offset: 0xF245, size: 0x8, addend: 0x0, symName: '__ZN4core3ptr158drop_in_place$LT$alloc..boxed..Box$LT$$u5b$addr2line..SupUnit$LT$gimli..read..endian_slice..EndianSlice$LT$gimli..endianity..LittleEndian$GT$$GT$$u5d$$GT$$GT$17hcbd148f67d377a72E', symObjAddr: 0x2594, symBinAddr: 0x100005A10, symSize: 0xE4 }
  - { offset: 0xF3F3, size: 0x8, addend: 0x0, symName: '__ZN4core3ptr159drop_in_place$LT$alloc..sync..ArcInner$LT$gimli..read..dwarf..Dwarf$LT$gimli..read..endian_slice..EndianSlice$LT$gimli..endianity..LittleEndian$GT$$GT$$GT$$GT$17h350dc7a25fa01851E', symObjAddr: 0x2678, symBinAddr: 0x100005AF4, symSize: 0x58 }
  - { offset: 0xF500, size: 0x8, addend: 0x0, symName: '__ZN4core3ptr174drop_in_place$LT$core..result..Result$LT$addr2line..FrameIter$LT$gimli..read..endian_slice..EndianSlice$LT$gimli..endianity..LittleEndian$GT$$GT$$C$gimli..read..Error$GT$$GT$17h20520c9c39e2d0f6E', symObjAddr: 0x26D0, symBinAddr: 0x100005B4C, symSize: 0x44 }
  - { offset: 0xF67B, size: 0x8, addend: 0x0, symName: '__ZN4core3ptr181drop_in_place$LT$core..option..Option$LT$gimli..read..line..IncompleteLineProgram$LT$gimli..read..endian_slice..EndianSlice$LT$gimli..endianity..LittleEndian$GT$$C$usize$GT$$GT$$GT$17heefdf74aaf21e555E', symObjAddr: 0x2714, symBinAddr: 0x100005B90, symSize: 0x94 }
  - { offset: 0xF96F, size: 0x8, addend: 0x0, symName: '__ZN4core3ptr184drop_in_place$LT$core..result..Result$LT$addr2line..function..Functions$LT$gimli..read..endian_slice..EndianSlice$LT$gimli..endianity..LittleEndian$GT$$GT$$C$gimli..read..Error$GT$$GT$17h8a8e7727ae990110E', symObjAddr: 0x27A8, symBinAddr: 0x100005C24, symSize: 0xD8 }
  - { offset: 0xFC3F, size: 0x8, addend: 0x0, symName: '__ZN4core3ptr215drop_in_place$LT$std..sys..thread_local..native..lazy..State$LT$core..cell..Cell$LT$core..option..Option$LT$alloc..sync..Arc$LT$std..sync..mutex..Mutex$LT$alloc..vec..Vec$LT$u8$GT$$GT$$GT$$GT$$GT$$C$$LP$$RP$$GT$$GT$17h359053fe13b33dfcE', symObjAddr: 0x28A8, symBinAddr: 0x100005CFC, symSize: 0x40 }
  - { offset: 0xFD00, size: 0x8, addend: 0x0, symName: '__ZN4core3ptr250drop_in_place$LT$$LP$gimli..read..UnitOffset$C$addr2line..lazy..LazyCell$LT$core..result..Result$LT$addr2line..function..Function$LT$gimli..read..endian_slice..EndianSlice$LT$gimli..endianity..LittleEndian$GT$$GT$$C$gimli..read..Error$GT$$GT$$RP$$GT$17h9a2b3fa9b348f67fE', symObjAddr: 0x28E8, symBinAddr: 0x100005D3C, symSize: 0x64 }
  - { offset: 0xFD17, size: 0x8, addend: 0x0, symName: '__ZN4core3ptr250drop_in_place$LT$$LP$gimli..read..UnitOffset$C$addr2line..lazy..LazyCell$LT$core..result..Result$LT$addr2line..function..Function$LT$gimli..read..endian_slice..EndianSlice$LT$gimli..endianity..LittleEndian$GT$$GT$$C$gimli..read..Error$GT$$GT$$RP$$GT$17h9a2b3fa9b348f67fE', symObjAddr: 0x28E8, symBinAddr: 0x100005D3C, symSize: 0x64 }
  - { offset: 0xFD2C, size: 0x8, addend: 0x0, symName: '__ZN4core3ptr250drop_in_place$LT$$LP$gimli..read..UnitOffset$C$addr2line..lazy..LazyCell$LT$core..result..Result$LT$addr2line..function..Function$LT$gimli..read..endian_slice..EndianSlice$LT$gimli..endianity..LittleEndian$GT$$GT$$C$gimli..read..Error$GT$$GT$$RP$$GT$17h9a2b3fa9b348f67fE', symObjAddr: 0x28E8, symBinAddr: 0x100005D3C, symSize: 0x64 }
  - { offset: 0xFD41, size: 0x8, addend: 0x0, symName: '__ZN4core3ptr250drop_in_place$LT$$LP$gimli..read..UnitOffset$C$addr2line..lazy..LazyCell$LT$core..result..Result$LT$addr2line..function..Function$LT$gimli..read..endian_slice..EndianSlice$LT$gimli..endianity..LittleEndian$GT$$GT$$C$gimli..read..Error$GT$$GT$$RP$$GT$17h9a2b3fa9b348f67fE', symObjAddr: 0x28E8, symBinAddr: 0x100005D3C, symSize: 0x64 }
  - { offset: 0xFE81, size: 0x8, addend: 0x0, symName: '__ZN4core3ptr273drop_in_place$LT$alloc..vec..Vec$LT$$LP$gimli..read..UnitOffset$C$addr2line..lazy..LazyCell$LT$core..result..Result$LT$addr2line..function..Function$LT$gimli..read..endian_slice..EndianSlice$LT$gimli..endianity..LittleEndian$GT$$GT$$C$gimli..read..Error$GT$$GT$$RP$$GT$$GT$17ha71c34fa9df1ee80E', symObjAddr: 0x294C, symBinAddr: 0x100005DA0, symSize: 0xAC }
  - { offset: 0x100AF, size: 0x8, addend: 0x0, symName: '__ZN4core3ptr275drop_in_place$LT$gimli..read..line..LineRows$LT$gimli..read..endian_slice..EndianSlice$LT$gimli..endianity..LittleEndian$GT$$C$gimli..read..line..IncompleteLineProgram$LT$gimli..read..endian_slice..EndianSlice$LT$gimli..endianity..LittleEndian$GT$$C$usize$GT$$C$usize$GT$$GT$17hbb9d7d3d040ba386E', symObjAddr: 0x29F8, symBinAddr: 0x100005E4C, symSize: 0x88 }
  - { offset: 0x10314, size: 0x8, addend: 0x0, symName: '__ZN4core3ptr280drop_in_place$LT$$LT$alloc..collections..btree..map..IntoIter$LT$K$C$V$C$A$GT$$u20$as$u20$core..ops..drop..Drop$GT$..drop..DropGuard$LT$u64$C$core..result..Result$LT$alloc..sync..Arc$LT$gimli..read..abbrev..Abbreviations$GT$$C$gimli..read..Error$GT$$C$alloc..alloc..Global$GT$$GT$17h74b13c23f0977491E', symObjAddr: 0x2A80, symBinAddr: 0x100005ED4, symSize: 0x84 }
  - { offset: 0x1045E, size: 0x8, addend: 0x0, symName: '__ZN4core3ptr285drop_in_place$LT$alloc..boxed..Box$LT$$u5b$$LP$gimli..read..UnitOffset$C$addr2line..lazy..LazyCell$LT$core..result..Result$LT$addr2line..function..Function$LT$gimli..read..endian_slice..EndianSlice$LT$gimli..endianity..LittleEndian$GT$$GT$$C$gimli..read..Error$GT$$GT$$RP$$u5d$$GT$$GT$17h4c0e5fff1642bc53E', symObjAddr: 0x2B04, symBinAddr: 0x100005F58, symSize: 0x9C }
  - { offset: 0x10475, size: 0x8, addend: 0x0, symName: '__ZN4core3ptr285drop_in_place$LT$alloc..boxed..Box$LT$$u5b$$LP$gimli..read..UnitOffset$C$addr2line..lazy..LazyCell$LT$core..result..Result$LT$addr2line..function..Function$LT$gimli..read..endian_slice..EndianSlice$LT$gimli..endianity..LittleEndian$GT$$GT$$C$gimli..read..Error$GT$$GT$$RP$$u5d$$GT$$GT$17h4c0e5fff1642bc53E', symObjAddr: 0x2B04, symBinAddr: 0x100005F58, symSize: 0x9C }
  - { offset: 0x10D2F, size: 0x8, addend: 0x0, symName: '__ZN4core3ptr383drop_in_place$LT$core..result..Result$LT$core..option..Option$LT$alloc..boxed..Box$LT$$LP$alloc..sync..Arc$LT$gimli..read..dwarf..Dwarf$LT$gimli..read..endian_slice..EndianSlice$LT$gimli..endianity..LittleEndian$GT$$GT$$GT$$C$gimli..read..dwarf..Unit$LT$gimli..read..endian_slice..EndianSlice$LT$gimli..endianity..LittleEndian$GT$$C$usize$GT$$RP$$GT$$GT$$C$gimli..read..Error$GT$$GT$17h724d051af7e3a1c4E', symObjAddr: 0x2C4C, symBinAddr: 0x100005FF4, symSize: 0xD4 }
  - { offset: 0x10F32, size: 0x8, addend: 0x0, symName: '__ZN4core3ptr42drop_in_place$LT$alloc..string..String$GT$17h61495ec7b922a046E', symObjAddr: 0x2E48, symBinAddr: 0x1000060C8, symSize: 0x28 }
  - { offset: 0x11007, size: 0x8, addend: 0x0, symName: '__ZN4core3ptr42drop_in_place$LT$std..io..error..Error$GT$17h924dbebc5083d819E', symObjAddr: 0x2E70, symBinAddr: 0x1000060F0, symSize: 0xAC }
  - { offset: 0x1121B, size: 0x8, addend: 0x0, symName: '__ZN4core3ptr44drop_in_place$LT$object..read..ObjectMap$GT$17h9f6d8c9bbe8676a4E', symObjAddr: 0x2F1C, symBinAddr: 0x10000619C, symSize: 0x58 }
  - { offset: 0x11349, size: 0x8, addend: 0x0, symName: '__ZN4core3ptr44drop_in_place$LT$std..thread..PanicGuard$GT$17h65c4bc54c991acbeE', symObjAddr: 0x2FE0, symBinAddr: 0x1000061F4, symSize: 0x44 }
  - { offset: 0x1139B, size: 0x8, addend: 0x0, symName: '__ZN4core3ptr44drop_in_place$LT$std..thread..ThreadName$GT$17he9179243778e7ac8E', symObjAddr: 0x3024, symBinAddr: 0x100006238, symSize: 0x3C }
  - { offset: 0x11454, size: 0x8, addend: 0x0, symName: '__ZN4core3ptr46drop_in_place$LT$std..io..stdio..StdinLock$GT$17h25432cf1b9b631dbE', symObjAddr: 0x3088, symBinAddr: 0x100006274, symSize: 0x54 }
  - { offset: 0x1146B, size: 0x8, addend: 0x0, symName: '__ZN4core3ptr46drop_in_place$LT$std..io..stdio..StdinLock$GT$17h25432cf1b9b631dbE', symObjAddr: 0x3088, symBinAddr: 0x100006274, symSize: 0x54 }
  - { offset: 0x11480, size: 0x8, addend: 0x0, symName: '__ZN4core3ptr46drop_in_place$LT$std..io..stdio..StdinLock$GT$17h25432cf1b9b631dbE', symObjAddr: 0x3088, symBinAddr: 0x100006274, symSize: 0x54 }
  - { offset: 0x11589, size: 0x8, addend: 0x0, symName: '__ZN4core3ptr55drop_in_place$LT$gimli..read..abbrev..Abbreviations$GT$17he9582e6a4b4189b0E', symObjAddr: 0x3428, symBinAddr: 0x1000062C8, symSize: 0x84 }
  - { offset: 0x11740, size: 0x8, addend: 0x0, symName: '__ZN4core3ptr60drop_in_place$LT$gimli..read..abbrev..AbbreviationsCache$GT$17h9d0eba5c9dda23c4E', symObjAddr: 0x34BC, symBinAddr: 0x10000634C, symSize: 0xCC }
  - { offset: 0x118D1, size: 0x8, addend: 0x0, symName: '__ZN4core3ptr62drop_in_place$LT$std..sys..sync..rwlock..queue..PanicGuard$GT$17hce38602be2122707E', symObjAddr: 0x3588, symBinAddr: 0x100006418, symSize: 0x44 }
  - { offset: 0x11930, size: 0x8, addend: 0x0, symName: '__ZN4core3ptr65drop_in_place$LT$alloc..vec..Vec$LT$alloc..string..String$GT$$GT$17h2f36e88bfd8770e1E', symObjAddr: 0x35CC, symBinAddr: 0x10000645C, symSize: 0x80 }
  - { offset: 0x11AA0, size: 0x8, addend: 0x0, symName: '__ZN4core3ptr65drop_in_place$LT$std..backtrace_rs..symbolize..gimli..Mapping$GT$17h31344005bd4b7e99E', symObjAddr: 0x364C, symBinAddr: 0x1000064DC, symSize: 0x70 }
  - { offset: 0x11B52, size: 0x8, addend: 0x0, symName: '__ZN4core3ptr67drop_in_place$LT$alloc..vec..Vec$LT$addr2line..LineSequence$GT$$GT$17heb663068d829c259E', symObjAddr: 0x36BC, symBinAddr: 0x10000654C, symSize: 0x84 }
  - { offset: 0x11CB6, size: 0x8, addend: 0x0, symName: '__ZN4core3ptr68drop_in_place$LT$core..option..Option$LT$std..thread..Thread$GT$$GT$17h2b48afe567b2e886E', symObjAddr: 0x3740, symBinAddr: 0x1000065D0, symSize: 0x34 }
  - { offset: 0x11DC9, size: 0x8, addend: 0x0, symName: '__ZN4core3ptr70drop_in_place$LT$std..backtrace_rs..symbolize..gimli..stash..Stash$GT$17h849b9347acaa4f9dE', symObjAddr: 0x3870, symBinAddr: 0x100006604, symSize: 0xB8 }
  - { offset: 0x120A0, size: 0x8, addend: 0x0, symName: '__ZN4core3ptr71drop_in_place$LT$std..backtrace_rs..symbolize..gimli..macho..Object$GT$17he464dace0837fc07E', symObjAddr: 0x3928, symBinAddr: 0x1000066BC, symSize: 0x15C }
  - { offset: 0x123D4, size: 0x8, addend: 0x0, symName: '__ZN4core3ptr71drop_in_place$LT$std..sync..rwlock..RwLockReadGuard$LT$$LP$$RP$$GT$$GT$17h33a87c778f6ff8acE', symObjAddr: 0x3AF0, symBinAddr: 0x100006818, symSize: 0x44 }
  - { offset: 0x12485, size: 0x8, addend: 0x0, symName: '__ZN4core3ptr72drop_in_place$LT$core..option..Option$LT$object..read..ObjectMap$GT$$GT$17h15a58a385d75b662E', symObjAddr: 0x3B34, symBinAddr: 0x10000685C, symSize: 0x64 }
  - { offset: 0x125C9, size: 0x8, addend: 0x0, symName: '__ZN4core3ptr77drop_in_place$LT$alloc..boxed..Box$LT$$u5b$alloc..string..String$u5d$$GT$$GT$17hb20cef3002c71789E', symObjAddr: 0x3BF0, symBinAddr: 0x1000068C0, symSize: 0x70 }
  - { offset: 0x125E0, size: 0x8, addend: 0x0, symName: '__ZN4core3ptr77drop_in_place$LT$alloc..boxed..Box$LT$$u5b$alloc..string..String$u5d$$GT$$GT$17hb20cef3002c71789E', symObjAddr: 0x3BF0, symBinAddr: 0x1000068C0, symSize: 0x70 }
  - { offset: 0x126E9, size: 0x8, addend: 0x0, symName: '__ZN4core3ptr77drop_in_place$LT$std..panicking..begin_panic_handler..FormatStringPayload$GT$17h6ebba54a748b8d0eE', symObjAddr: 0x3C60, symBinAddr: 0x100006930, symSize: 0x34 }
  - { offset: 0x127A4, size: 0x8, addend: 0x0, symName: '__ZN4core3ptr81drop_in_place$LT$core..result..Result$LT$$LP$$RP$$C$std..io..error..Error$GT$$GT$17hbb03115a4eeb66a9E', symObjAddr: 0x3E18, symBinAddr: 0x100006964, symSize: 0x20 }
  - { offset: 0x127C4, size: 0x8, addend: 0x0, symName: '__ZN4core3ptr84drop_in_place$LT$alloc..sync..ArcInner$LT$gimli..read..abbrev..Abbreviations$GT$$GT$17h09919f3cea72f38fE', symObjAddr: 0x3E84, symBinAddr: 0x100006984, symSize: 0x84 }
  - { offset: 0x12998, size: 0x8, addend: 0x0, symName: '__ZN4core3ptr86drop_in_place$LT$core..result..Result$LT$addr2line..Lines$C$gimli..read..Error$GT$$GT$17h696468a68b624ac5E', symObjAddr: 0x3F08, symBinAddr: 0x100006A08, symSize: 0xE4 }
  - { offset: 0x12BF6, size: 0x8, addend: 0x0, symName: '__ZN4core3ptr87drop_in_place$LT$alloc..sync..ArcInner$LT$std..sys..pal..unix..fs..InnerReadDir$GT$$GT$17hfabe36cee593aef6E', symObjAddr: 0x3FEC, symBinAddr: 0x100006AEC, symSize: 0x60 }
  - { offset: 0x12DD9, size: 0x8, addend: 0x0, symName: '__ZN4core3ptr88drop_in_place$LT$alloc..vec..Vec$LT$std..backtrace_rs..symbolize..gimli..Library$GT$$GT$17hd7628073410dd88cE', symObjAddr: 0x4080, symBinAddr: 0x100006B4C, symSize: 0x98 }
  - { offset: 0x12FD1, size: 0x8, addend: 0x0, symName: '__ZN4core3ptr88drop_in_place$LT$std..io..Write..write_fmt..Adapter$LT$alloc..vec..Vec$LT$u8$GT$$GT$$GT$17h0ba66fdde445a72aE', symObjAddr: 0x4118, symBinAddr: 0x100006BE4, symSize: 0x20 }
  - { offset: 0x13014, size: 0x8, addend: 0x0, symName: '__ZN4core3ptr90drop_in_place$LT$std..io..buffered..bufwriter..BufWriter$LT$W$GT$..flush_buf..BufGuard$GT$17h754dc72f05aa7ca1E', symObjAddr: 0x4138, symBinAddr: 0x100006C04, symSize: 0x60 }
  - { offset: 0x131B6, size: 0x8, addend: 0x0, symName: '__ZN4core3ptr92drop_in_place$LT$alloc..boxed..Box$LT$std..sys..sync..mutex..pthread..AllocatedMutex$GT$$GT$17h9dd5aab7a942150fE', symObjAddr: 0x4214, symBinAddr: 0x100006C64, symSize: 0x2C }
  - { offset: 0x13250, size: 0x8, addend: 0x0, symName: '__ZN4core3ptr95drop_in_place$LT$core..option..IntoIter$LT$std..backtrace_rs..symbolize..gimli..Library$GT$$GT$17h3a42cf7a46444decE', symObjAddr: 0x4240, symBinAddr: 0x100006C90, symSize: 0x5C }
  - { offset: 0x1326E, size: 0x8, addend: 0x0, symName: '__ZN4core3ptr95drop_in_place$LT$core..option..IntoIter$LT$std..backtrace_rs..symbolize..gimli..Library$GT$$GT$17h3a42cf7a46444decE', symObjAddr: 0x4240, symBinAddr: 0x100006C90, symSize: 0x5C }
  - { offset: 0x13283, size: 0x8, addend: 0x0, symName: '__ZN4core3ptr95drop_in_place$LT$core..option..IntoIter$LT$std..backtrace_rs..symbolize..gimli..Library$GT$$GT$17h3a42cf7a46444decE', symObjAddr: 0x4240, symBinAddr: 0x100006C90, symSize: 0x5C }
  - { offset: 0x133E9, size: 0x8, addend: 0x0, symName: '__ZN4core3ptr95drop_in_place$LT$std..io..buffered..linewriter..LineWriter$LT$std..io..stdio..StdoutRaw$GT$$GT$17hd24c1063f9cfa17bE', symObjAddr: 0x429C, symBinAddr: 0x100006CEC, symSize: 0xF0 }
  - { offset: 0x1534F, size: 0x8, addend: 0x0, symName: __ZN4core5slice4sort6shared5pivot11median3_rec17h001c9adca1ce03d7E, symObjAddr: 0x4658, symBinAddr: 0x100006DF0, symSize: 0xD0 }
  - { offset: 0x15446, size: 0x8, addend: 0x0, symName: __ZN4core5slice4sort6shared5pivot11median3_rec17h37b7dffe14755907E, symObjAddr: 0x4728, symBinAddr: 0x100006EC0, symSize: 0xCC }
  - { offset: 0x1553D, size: 0x8, addend: 0x0, symName: __ZN4core5slice4sort6shared5pivot11median3_rec17h3e2c744abf11ed91E, symObjAddr: 0x47F4, symBinAddr: 0x100006F8C, symSize: 0xD0 }
  - { offset: 0x15634, size: 0x8, addend: 0x0, symName: __ZN4core5slice4sort6shared5pivot11median3_rec17h46f11f9d50e51431E, symObjAddr: 0x48C4, symBinAddr: 0x10000705C, symSize: 0x134 }
  - { offset: 0x15857, size: 0x8, addend: 0x0, symName: __ZN4core5slice4sort6shared5pivot11median3_rec17h5170fde408f06997E, symObjAddr: 0x49F8, symBinAddr: 0x100007190, symSize: 0x11C }
  - { offset: 0x15950, size: 0x8, addend: 0x0, symName: __ZN4core5slice4sort6shared5pivot11median3_rec17h992825939e560474E, symObjAddr: 0x4B14, symBinAddr: 0x1000072AC, symSize: 0xCC }
  - { offset: 0x15A9D, size: 0x8, addend: 0x0, symName: __ZN4core5slice4sort6shared5pivot11median3_rec17hd01de3caf36e971aE, symObjAddr: 0x4BE0, symBinAddr: 0x100007378, symSize: 0xD0 }
  - { offset: 0x15B94, size: 0x8, addend: 0x0, symName: __ZN4core5slice4sort6shared5pivot11median3_rec17hebd71e6e10af7f96E, symObjAddr: 0x4CB0, symBinAddr: 0x100007448, symSize: 0xCC }
  - { offset: 0x15D53, size: 0x8, addend: 0x0, symName: __ZN4core5slice4sort6shared9smallsort12sort4_stable17h500d0959a0c776afE, symObjAddr: 0x4D7C, symBinAddr: 0x100007514, symSize: 0x1B4 }
  - { offset: 0x15EF6, size: 0x8, addend: 0x0, symName: __ZN4core5slice4sort6shared9smallsort12sort4_stable17h575b1b9a90e5d5d6E, symObjAddr: 0x4F30, symBinAddr: 0x1000076C8, symSize: 0x180 }
  - { offset: 0x16312, size: 0x8, addend: 0x0, symName: __ZN4core5slice4sort6shared9smallsort12sort8_stable17hf52532f2ad9efec4E, symObjAddr: 0x50B0, symBinAddr: 0x100007848, symSize: 0x2B8 }
  - { offset: 0x16885, size: 0x8, addend: 0x0, symName: __ZN4core5slice4sort6shared9smallsort18small_sort_general17h1b187870bc21ec9cE, symObjAddr: 0x5368, symBinAddr: 0x100007B00, symSize: 0x3E0 }
  - { offset: 0x16DCF, size: 0x8, addend: 0x0, symName: __ZN4core5slice4sort6shared9smallsort18small_sort_general17hf99124f86d438951E, symObjAddr: 0x5748, symBinAddr: 0x100007EE0, symSize: 0x490 }
  - { offset: 0x17777, size: 0x8, addend: 0x0, symName: __ZN4core5slice4sort6stable14driftsort_main17h336c0b6e9b4b9d03E, symObjAddr: 0x5BD8, symBinAddr: 0x100008370, symSize: 0x14C }
  - { offset: 0x17AB2, size: 0x8, addend: 0x0, symName: __ZN4core5slice4sort6stable14driftsort_main17h5acccd599c2d49beE, symObjAddr: 0x5D24, symBinAddr: 0x1000084BC, symSize: 0x14C }
  - { offset: 0x17DED, size: 0x8, addend: 0x0, symName: __ZN4core5slice4sort6stable14driftsort_main17h7c78856ad3a60825E, symObjAddr: 0x5E70, symBinAddr: 0x100008608, symSize: 0x134 }
  - { offset: 0x180D2, size: 0x8, addend: 0x0, symName: __ZN4core5slice4sort6stable14driftsort_main17h84941de99c019b23E, symObjAddr: 0x5FA4, symBinAddr: 0x10000873C, symSize: 0x134 }
  - { offset: 0x18335, size: 0x8, addend: 0x0, symName: __ZN4core5slice4sort6stable14driftsort_main17ha2d4c6ddba5a32c0E, symObjAddr: 0x60D8, symBinAddr: 0x100008870, symSize: 0x134 }
  - { offset: 0x1861A, size: 0x8, addend: 0x0, symName: __ZN4core5slice4sort6stable14driftsort_main17hd36e3da279c0caf2E, symObjAddr: 0x620C, symBinAddr: 0x1000089A4, symSize: 0x134 }
  - { offset: 0x18ACD, size: 0x8, addend: 0x0, symName: __ZN4core5slice4sort6stable5drift4sort17h0910c22a7aed7d80E, symObjAddr: 0x6340, symBinAddr: 0x100008AD8, symSize: 0x53C }
  - { offset: 0x191E3, size: 0x8, addend: 0x0, symName: __ZN4core5slice4sort6stable5drift4sort17h332562468c2be195E, symObjAddr: 0x687C, symBinAddr: 0x100009014, symSize: 0x618 }
  - { offset: 0x198A9, size: 0x8, addend: 0x0, symName: __ZN4core5slice4sort6stable5drift4sort17h71452eb72df08de3E, symObjAddr: 0x6E94, symBinAddr: 0x10000962C, symSize: 0x6DC }
  - { offset: 0x19FB9, size: 0x8, addend: 0x0, symName: __ZN4core5slice4sort6stable5drift4sort17h783f7383454d67d0E, symObjAddr: 0x7570, symBinAddr: 0x100009D08, symSize: 0x4DC }
  - { offset: 0x1A64A, size: 0x8, addend: 0x0, symName: __ZN4core5slice4sort6stable5drift4sort17ha690b9c547494817E, symObjAddr: 0x7A4C, symBinAddr: 0x10000A1E4, symSize: 0x5A8 }
  - { offset: 0x1ACFC, size: 0x8, addend: 0x0, symName: __ZN4core5slice4sort6stable5drift4sort17heeed68b538603972E, symObjAddr: 0x7FF4, symBinAddr: 0x10000A78C, symSize: 0x5B0 }
  - { offset: 0x1B5B5, size: 0x8, addend: 0x0, symName: __ZN4core5slice4sort6stable9quicksort9quicksort17h07609bc7b46cc4c3E, symObjAddr: 0x85A4, symBinAddr: 0x10000AD3C, symSize: 0x80C }
  - { offset: 0x1C16D, size: 0x8, addend: 0x0, symName: __ZN4core5slice4sort6stable9quicksort9quicksort17h2208f4fd7ef38689E, symObjAddr: 0x8DB0, symBinAddr: 0x10000B548, symSize: 0x730 }
  - { offset: 0x1C86D, size: 0x8, addend: 0x0, symName: __ZN4core5slice4sort6stable9quicksort9quicksort17h698d50eee9524539E, symObjAddr: 0x94E0, symBinAddr: 0x10000BC78, symSize: 0x7F0 }
  - { offset: 0x1D423, size: 0x8, addend: 0x0, symName: __ZN4core5slice4sort6stable9quicksort9quicksort17h71557a9ccb20f345E, symObjAddr: 0x9CD0, symBinAddr: 0x10000C468, symSize: 0x6BC }
  - { offset: 0x1DE97, size: 0x8, addend: 0x0, symName: __ZN4core5slice4sort6stable9quicksort9quicksort17h7d18675e56ccfb08E, symObjAddr: 0xA38C, symBinAddr: 0x10000CB24, symSize: 0x81C }
  - { offset: 0x1EF39, size: 0x8, addend: 0x0, symName: __ZN4core5slice4sort6stable9quicksort9quicksort17ha6ab4781e3122c0bE, symObjAddr: 0xABA8, symBinAddr: 0x10000D340, symSize: 0x6E4 }
  - { offset: 0x1F9E4, size: 0x8, addend: 0x0, symName: __ZN4core5slice4sort8unstable7ipnsort17h0c1df14bd3af3f85E, symObjAddr: 0xB28C, symBinAddr: 0x10000DA24, symSize: 0x288 }
  - { offset: 0x1FC71, size: 0x8, addend: 0x0, symName: __ZN4core5slice4sort8unstable7ipnsort17h1f03437c860126fdE, symObjAddr: 0xB514, symBinAddr: 0x10000DCAC, symSize: 0x1E4 }
  - { offset: 0x1FD8E, size: 0x8, addend: 0x0, symName: __ZN4core5slice4sort8unstable8heapsort8heapsort17h6c6484d3e7d22d28E, symObjAddr: 0xB6F8, symBinAddr: 0x10000DE90, symSize: 0x160 }
  - { offset: 0x2009C, size: 0x8, addend: 0x0, symName: __ZN4core5slice4sort8unstable8heapsort8heapsort17hc2e0562e52d73606E, symObjAddr: 0xB858, symBinAddr: 0x10000DFF0, symSize: 0x10C }
  - { offset: 0x2031E, size: 0x8, addend: 0x0, symName: __ZN4core5slice4sort8unstable9quicksort9quicksort17h340ba531f4e54d1bE, symObjAddr: 0xB964, symBinAddr: 0x10000E0FC, symSize: 0x5B4 }
  - { offset: 0x20F41, size: 0x8, addend: 0x0, symName: __ZN4core5slice4sort8unstable9quicksort9quicksort17h91c5d9a2f27051c0E, symObjAddr: 0xBF18, symBinAddr: 0x10000E6B0, symSize: 0x440 }
  - { offset: 0x218A0, size: 0x8, addend: 0x0, symName: '__ZN36_$LT$T$u20$as$u20$core..any..Any$GT$7type_id17h05f8617bbf325208E', symObjAddr: 0x13C, symBinAddr: 0x100004A30, symSize: 0x30 }
  - { offset: 0x218B9, size: 0x8, addend: 0x0, symName: '__ZN36_$LT$T$u20$as$u20$core..any..Any$GT$7type_id17h691ab2dff0fbe812E', symObjAddr: 0x16C, symBinAddr: 0x100004A60, symSize: 0x30 }
  - { offset: 0x21914, size: 0x8, addend: 0x0, symName: '__ZN42_$LT$$RF$T$u20$as$u20$core..fmt..Debug$GT$3fmt17h177df7372056bd30E', symObjAddr: 0x234, symBinAddr: 0x100004A90, symSize: 0x30 }
  - { offset: 0x21966, size: 0x8, addend: 0x0, symName: '__ZN42_$LT$$RF$T$u20$as$u20$core..fmt..Debug$GT$3fmt17h85d76e334d46ea19E', symObjAddr: 0x61C, symBinAddr: 0x100004AC0, symSize: 0x1C }
  - { offset: 0x21996, size: 0x8, addend: 0x0, symName: '__ZN42_$LT$$RF$T$u20$as$u20$core..fmt..Debug$GT$3fmt17h9393fbad5eb3bf13E', symObjAddr: 0x638, symBinAddr: 0x100004ADC, symSize: 0x1C }
  - { offset: 0x21A0C, size: 0x8, addend: 0x0, symName: '__ZN4core3fmt3num50_$LT$impl$u20$core..fmt..Debug$u20$for$u20$i32$GT$3fmt17hd380ad7a4fef2800E', symObjAddr: 0xCA8, symBinAddr: 0x100004B7C, symSize: 0x2C }
  - { offset: 0x21A3B, size: 0x8, addend: 0x0, symName: '__ZN44_$LT$$RF$T$u20$as$u20$core..fmt..Display$GT$3fmt17h78eac1383a7063d7E', symObjAddr: 0xBD8, symBinAddr: 0x100004AF8, symSize: 0x1C }
  - { offset: 0x21A55, size: 0x8, addend: 0x0, symName: '__ZN44_$LT$$RF$T$u20$as$u20$core..fmt..Display$GT$3fmt17hcf9db2113d250371E', symObjAddr: 0xBF4, symBinAddr: 0x100004B14, symSize: 0x68 }
  - { offset: 0x21E18, size: 0x8, addend: 0x0, symName: __ZN4core3fmt5Write10write_char17h561dbab5b5c32ca3E, symObjAddr: 0xF00, symBinAddr: 0x100004BA8, symSize: 0x140 }
  - { offset: 0x21E7C, size: 0x8, addend: 0x0, symName: __ZN4core3fmt5Write10write_char17h5faeed758c2200efE, symObjAddr: 0x1040, symBinAddr: 0x100004CE8, symSize: 0x128 }
  - { offset: 0x22012, size: 0x8, addend: 0x0, symName: __ZN4core3fmt5Write10write_char17h902297fe9019c92dE, symObjAddr: 0x1168, symBinAddr: 0x100004E10, symSize: 0x17C }
  - { offset: 0x221D6, size: 0x8, addend: 0x0, symName: __ZN4core3fmt5Write9write_fmt17h4a87f4fec52c05fcE, symObjAddr: 0x1440, symBinAddr: 0x100004F8C, symSize: 0x1C }
  - { offset: 0x22204, size: 0x8, addend: 0x0, symName: __ZN4core3fmt5Write9write_fmt17h710862463af65ce5E, symObjAddr: 0x145C, symBinAddr: 0x100004FA8, symSize: 0x1C }
  - { offset: 0x22232, size: 0x8, addend: 0x0, symName: __ZN4core3fmt5Write9write_fmt17hc8a95e3c90fe4721E, symObjAddr: 0x1494, symBinAddr: 0x100004FC4, symSize: 0x1C }
  - { offset: 0x22260, size: 0x8, addend: 0x0, symName: __ZN4core3fmt5Write9write_fmt17he65f057c4ddb1bf2E, symObjAddr: 0x14B0, symBinAddr: 0x100004FE0, symSize: 0x1C }
  - { offset: 0x222BA, size: 0x8, addend: 0x0, symName: '__ZN50_$LT$$BP$mut$u20$T$u20$as$u20$core..fmt..Debug$GT$3fmt17he21299819320e252E', symObjAddr: 0xC40C, symBinAddr: 0x10000EAF0, symSize: 0x14 }
  - { offset: 0x22306, size: 0x8, addend: 0x0, symName: '__ZN52_$LT$$RF$mut$u20$T$u20$as$u20$core..fmt..Display$GT$3fmt17h7c765da0058d0c3fE', symObjAddr: 0xC494, symBinAddr: 0x10000EB04, symSize: 0x1C }
  - { offset: 0x22C47, size: 0x8, addend: 0x0, symName: '__ZN55_$LT$$RF$str$u20$as$u20$core..str..pattern..Pattern$GT$15is_contained_in17h61deb4b8b00e9356E', symObjAddr: 0xC4B0, symBinAddr: 0x10000EB20, symSize: 0x3BC }
  - { offset: 0x23064, size: 0x8, addend: 0x0, symName: __ZN4core5panic12PanicPayload6as_str17h7a58625bedad2dd7E, symObjAddr: 0x4644, symBinAddr: 0x100006DDC, symSize: 0x14 }
  - { offset: 0x23FDC, size: 0x8, addend: 0x0, symName: '__ZN4core3ops8function6FnOnce40call_once$u7b$$u7b$vtable.shim$u7d$$u7d$17h0eb852fd7c380454E', symObjAddr: 0x14F4, symBinAddr: 0x100004FFC, symSize: 0x18 }
  - { offset: 0x2402B, size: 0x8, addend: 0x0, symName: '__ZN4core3ops8function6FnOnce40call_once$u7b$$u7b$vtable.shim$u7d$$u7d$17h2d847a7cd888d5d5E', symObjAddr: 0x1580, symBinAddr: 0x100005014, symSize: 0x18 }
  - { offset: 0x2407A, size: 0x8, addend: 0x0, symName: '__ZN4core3ops8function6FnOnce40call_once$u7b$$u7b$vtable.shim$u7d$$u7d$17ha9e675c9b3024f0cE', symObjAddr: 0x169C, symBinAddr: 0x10000502C, symSize: 0x10 }
  - { offset: 0x240B4, size: 0x8, addend: 0x0, symName: '__ZN4core3ops8function6FnOnce40call_once$u7b$$u7b$vtable.shim$u7d$$u7d$17hb3bffd20ef83a1afE', symObjAddr: 0x16AC, symBinAddr: 0x10000503C, symSize: 0x78 }
  - { offset: 0x24246, size: 0x8, addend: 0x0, symName: '__ZN4core3ops8function6FnOnce40call_once$u7b$$u7b$vtable.shim$u7d$$u7d$17hd3f4c9f3cd25c962E', symObjAddr: 0x174C, symBinAddr: 0x1000050B4, symSize: 0xA4 }
  - { offset: 0x2438A, size: 0x8, addend: 0x0, symName: '__ZN4core3ops8function6FnOnce40call_once$u7b$$u7b$vtable.shim$u7d$$u7d$17hd455b8914116fed3E', symObjAddr: 0x17F0, symBinAddr: 0x100005158, symSize: 0x10 }
  - { offset: 0x243C4, size: 0x8, addend: 0x0, symName: '__ZN4core3ops8function6FnOnce40call_once$u7b$$u7b$vtable.shim$u7d$$u7d$17hedaaa27097ec661bE', symObjAddr: 0x1800, symBinAddr: 0x100005168, symSize: 0x60 }
  - { offset: 0x244D0, size: 0x8, addend: 0x0, symName: '__ZN4core3ops8function6FnOnce40call_once$u7b$$u7b$vtable.shim$u7d$$u7d$17hf3f69d97b1da84c4E', symObjAddr: 0x1860, symBinAddr: 0x1000051C8, symSize: 0x28 }
  - { offset: 0x26794, size: 0x8, addend: 0x0, symName: '__ZN4core4cell4once17OnceCell$LT$T$GT$8try_init17hc4adabb9fa3e8a4dE', symObjAddr: 0x438C, symBinAddr: 0x100037A8C, symSize: 0x114 }
  - { offset: 0x26BE4, size: 0x8, addend: 0x0, symName: __ZN4core9panicking13assert_failed17h5af2e1f3f6cf3b70E, symObjAddr: 0xC39C, symBinAddr: 0x100037BA0, symSize: 0x40 }
  - { offset: 0x26EBF, size: 0x8, addend: 0x0, symName: __ZN3std3sys3pal4unix2fs4File6open_c17h8034e496f140d197E, symObjAddr: 0x3AAF0, symBinAddr: 0x10002270C, symSize: 0x1A8 }
  - { offset: 0x2701B, size: 0x8, addend: 0x0, symName: '__ZN91_$LT$std..sys..pal..unix..fs..ReadDir$u20$as$u20$core..iter..traits..iterator..Iterator$GT$4next17hfd848aedf765e6c4E', symObjAddr: 0x3A660, symBinAddr: 0x100022508, symSize: 0x138 }
  - { offset: 0x27291, size: 0x8, addend: 0x0, symName: '__ZN70_$LT$std..sys..pal..unix..fs..Dir$u20$as$u20$core..ops..drop..Drop$GT$4drop17he97ce98f5d03c2b0E', symObjAddr: 0x3A798, symBinAddr: 0x100022640, symSize: 0xCC }
  - { offset: 0x27370, size: 0x8, addend: 0x0, symName: __ZN3std3sys3pal4unix2fs7readdir17h59e2c8552d831ce3E, symObjAddr: 0x3B3AC, symBinAddr: 0x1000228B4, symSize: 0x19C }
  - { offset: 0x27656, size: 0x8, addend: 0x0, symName: __ZN3std3sys3pal4unix2os13env_read_lock17heec4de91a1003e89E, symObjAddr: 0x3DB90, symBinAddr: 0x100022A50, symSize: 0x2D4 }
  - { offset: 0x27D19, size: 0x8, addend: 0x0, symName: '__ZN3std3sys3pal4unix2os6getenv28_$u7b$$u7b$closure$u7d$$u7d$17h2173bbb195afe723E', symObjAddr: 0x3DE64, symBinAddr: 0x100022D24, symSize: 0x124 }
  - { offset: 0x28001, size: 0x8, addend: 0x0, symName: __ZN3std3sys3pal4unix14stack_overflow3imp14signal_handler17hd8f4cd1bd95d9476E, symObjAddr: 0x405D0, symBinAddr: 0x100022E48, symSize: 0x190 }
  - { offset: 0x2835B, size: 0x8, addend: 0x0, symName: __ZN3std3sys3pal4unix14stack_overflow3imp12make_handler17hc1d87bb8ee5d5c4cE, symObjAddr: 0x40760, symBinAddr: 0x100022FD8, symSize: 0x1E0 }
  - { offset: 0x28699, size: 0x8, addend: 0x0, symName: __ZN3std3sys3pal4unix17decode_error_kind17h658fcc0fb80bec02E, symObjAddr: 0x412B0, symBinAddr: 0x1000231B8, symSize: 0x30 }
  - { offset: 0x286B2, size: 0x8, addend: 0x0, symName: __ZN3std3sys3pal4unix14abort_internal17h857d2ad66020786fE, symObjAddr: 0x412E0, symBinAddr: 0x1000231E8, symSize: 0xC }
  - { offset: 0x28720, size: 0x8, addend: 0x0, symName: __ZN3std3sys3pal6common14small_c_string24run_with_cstr_allocating17h41459cfa947e9fbeE, symObjAddr: 0x356D4, symBinAddr: 0x100038070, symSize: 0x9C }
  - { offset: 0x2888E, size: 0x8, addend: 0x0, symName: __ZN3std3sys3pal6common14small_c_string24run_with_cstr_allocating17hae94c44ef5e1b55cE, symObjAddr: 0x359B0, symBinAddr: 0x10003810C, symSize: 0xAC }
  - { offset: 0x289E9, size: 0x8, addend: 0x0, symName: __ZN3std3sys3pal6common14small_c_string24run_with_cstr_allocating17hee0f08c345321870E, symObjAddr: 0x35B1C, symBinAddr: 0x1000381B8, symSize: 0xC4 }
  - { offset: 0x28C49, size: 0x8, addend: 0x0, symName: '__ZN69_$LT$std..sys..os_str..bytes..Slice$u20$as$u20$core..fmt..Display$GT$3fmt17hfde323060867e81fE', symObjAddr: 0x427A0, symBinAddr: 0x10002358C, symSize: 0xA0 }
  - { offset: 0x28CB7, size: 0x8, addend: 0x0, symName: '__ZN3std3sys11personality3gcc14find_eh_action28_$u7b$$u7b$closure$u7d$$u7d$17h305f2ac54b218de4E', symObjAddr: 0x42390, symBinAddr: 0x1000231F4, symSize: 0x18 }
  - { offset: 0x28CCA, size: 0x8, addend: 0x0, symName: '__ZN3std3sys11personality3gcc14find_eh_action28_$u7b$$u7b$closure$u7d$$u7d$17h17bcf6bd34e05be0E', symObjAddr: 0x423A8, symBinAddr: 0x10002320C, symSize: 0x18 }
  - { offset: 0x28CF7, size: 0x8, addend: 0x0, symName: _rust_eh_personality, symObjAddr: 0x423C0, symBinAddr: 0x100023224, symSize: 0x368 }
  - { offset: 0x29009, size: 0x8, addend: 0x0, symName: __ZN3std3sys11personality5dwarf2eh19read_encoded_offset17hffdd6e829f9c05a8E, symObjAddr: 0x35C90, symBinAddr: 0x10002029C, symSize: 0x150 }
  - { offset: 0x29162, size: 0x8, addend: 0x0, symName: '__ZN3std3sys9backtrace10_print_fmt28_$u7b$$u7b$closure$u7d$$u7d$17h6a8bb32777d977e8E', symObjAddr: 0x360CC, symBinAddr: 0x1000206D8, symSize: 0x30 }
  - { offset: 0x2918A, size: 0x8, addend: 0x0, symName: '__ZN3std3sys9backtrace10_print_fmt28_$u7b$$u7b$closure$u7d$$u7d$17h4acb2355784ec558E', symObjAddr: 0x360FC, symBinAddr: 0x100020708, symSize: 0x134 }
  - { offset: 0x2929C, size: 0x8, addend: 0x0, symName: '__ZN3std3sys9backtrace10_print_fmt28_$u7b$$u7b$closure$u7d$$u7d$28_$u7b$$u7b$closure$u7d$$u7d$17h4fbd43930ba51a17E', symObjAddr: 0x36230, symBinAddr: 0x10002083C, symSize: 0x26C }
  - { offset: 0x294C5, size: 0x8, addend: 0x0, symName: __ZN3std3sys9backtrace4lock17h9c02986e58c7150eE, symObjAddr: 0x35DE0, symBinAddr: 0x1000203EC, symSize: 0x70 }
  - { offset: 0x29600, size: 0x8, addend: 0x0, symName: __ZN3std3sys9backtrace13BacktraceLock5print17h8baf33e22611de71E, symObjAddr: 0x35E50, symBinAddr: 0x10002045C, symSize: 0x54 }
  - { offset: 0x2964B, size: 0x8, addend: 0x0, symName: '__ZN98_$LT$std..sys..backtrace..BacktraceLock..print..DisplayBacktrace$u20$as$u20$core..fmt..Display$GT$3fmt17h7adefaad4a31afc0E', symObjAddr: 0x35EA4, symBinAddr: 0x1000204B0, symSize: 0x228 }
  - { offset: 0x29BCA, size: 0x8, addend: 0x0, symName: __ZN3std3sys9backtrace26__rust_end_short_backtrace17heed121414170e0c7E, symObjAddr: 0x3649C, symBinAddr: 0x100020AA8, symSize: 0xC }
  - { offset: 0x29BE3, size: 0x8, addend: 0x0, symName: __ZN3std3sys9backtrace15output_filename17hc977e54bfca8d5d8E, symObjAddr: 0x364A8, symBinAddr: 0x100020AB4, symSize: 0xFC }
  - { offset: 0x29D88, size: 0x8, addend: 0x0, symName: '__ZN3std3sys4sync8once_box16OnceBox$LT$T$GT$10initialize17hd3c004cd62d9b478E', symObjAddr: 0x366D0, symBinAddr: 0x10003827C, symSize: 0x4C }
  - { offset: 0x29F7E, size: 0x8, addend: 0x0, symName: __ZN3std3sys4sync5mutex7pthread14AllocatedMutex3new17h0685a95bbf6234c8E, symObjAddr: 0x4312C, symBinAddr: 0x10002362C, symSize: 0x1C8 }
  - { offset: 0x2A0DC, size: 0x8, addend: 0x0, symName: __ZN3std3sys4sync5mutex7pthread5Mutex4lock4fail17h65b585fc519334efE, symObjAddr: 0x432F4, symBinAddr: 0x1000382F4, symSize: 0xDC }
  - { offset: 0x2A398, size: 0x8, addend: 0x0, symName: __ZN3std3sys4sync6rwlock5queue6RwLock21read_unlock_contended17h96494ba44518a708E, symObjAddr: 0x43E7C, symBinAddr: 0x100038530, symSize: 0x70 }
  - { offset: 0x2A59C, size: 0x8, addend: 0x0, symName: __ZN3std3sys4sync6rwlock5queue6RwLock12unlock_queue17h91b974f598e765f2E, symObjAddr: 0x43F24, symBinAddr: 0x100023A24, symSize: 0x17C }
  - { offset: 0x2AD11, size: 0x8, addend: 0x0, symName: __ZN3std3sys4sync6rwlock5queue9read_lock17h82656e185711842bE, symObjAddr: 0x43BBC, symBinAddr: 0x1000239F8, symSize: 0x2C }
  - { offset: 0x2ADD1, size: 0x8, addend: 0x0, symName: __ZN3std3sys4sync4once5queue4Once4call17h37550d946806f870E, symObjAddr: 0x43840, symBinAddr: 0x1000383D0, symSize: 0x160 }
  - { offset: 0x2AEF0, size: 0x8, addend: 0x0, symName: __ZN3std3sys4sync4once5queue4wait17h959a6f4df97f75a9E, symObjAddr: 0x439A0, symBinAddr: 0x1000237F4, symSize: 0x12C }
  - { offset: 0x2B333, size: 0x8, addend: 0x0, symName: '__ZN82_$LT$std..sys..sync..once..queue..WaiterQueue$u20$as$u20$core..ops..drop..Drop$GT$4drop17ha1403e3a0b27a600E', symObjAddr: 0x43ACC, symBinAddr: 0x100023920, symSize: 0xD8 }
  - { offset: 0x2B5A2, size: 0x8, addend: 0x0, symName: '__ZN3std3sys12thread_local6native4lazy20Storage$LT$T$C$D$GT$10initialize17h279b4dc40ec31e26E', symObjAddr: 0x440E4, symBinAddr: 0x1000385A0, symSize: 0xC0 }
  - { offset: 0x2B795, size: 0x8, addend: 0x0, symName: __ZN3std3sys12thread_local6native4lazy7destroy17hbca9a89daea3b1a7E, symObjAddr: 0x441A4, symBinAddr: 0x100023BA0, symSize: 0x54 }
  - { offset: 0x2B901, size: 0x8, addend: 0x0, symName: __ZN3std3sys12thread_local5guard5apple6enable9run_dtors17h7df97e6abb62bbefE, symObjAddr: 0x44334, symBinAddr: 0x100023D30, symSize: 0x13C }
  - { offset: 0x2BE4F, size: 0x8, addend: 0x0, symName: __ZN3std3sys12thread_local11destructors4list8register17ha72f6427785942b6E, symObjAddr: 0x441F8, symBinAddr: 0x100023BF4, symSize: 0x13C }
  - { offset: 0x2C263, size: 0x8, addend: 0x0, symName: __ZN3std7process5abort17hefc10ade1c26ea0eE, symObjAddr: 0x33AE8, symBinAddr: 0x100037F98, symSize: 0xC }
  - { offset: 0x2C2E9, size: 0x8, addend: 0x0, symName: __ZN3std4path4Path13_strip_prefix17h2da2f8b103717ed8E, symObjAddr: 0x31598, symBinAddr: 0x10001FBB0, symSize: 0x21C }
  - { offset: 0x2C427, size: 0x8, addend: 0x0, symName: __ZN3std4path4Path5_join17had3a2b8f4cd3c0dfE, symObjAddr: 0x31DC8, symBinAddr: 0x10001FDCC, symSize: 0x19C }
  - { offset: 0x2C999, size: 0x8, addend: 0x0, symName: __ZN3std4path10Components15len_before_body17he1f50228b1838e6aE, symObjAddr: 0x2F900, symBinAddr: 0x10001ED44, symSize: 0x188 }
  - { offset: 0x2C9B0, size: 0x8, addend: 0x0, symName: __ZN3std4path10Components15len_before_body17he1f50228b1838e6aE, symObjAddr: 0x2F900, symBinAddr: 0x10001ED44, symSize: 0x188 }
  - { offset: 0x2C9C5, size: 0x8, addend: 0x0, symName: __ZN3std4path10Components15len_before_body17he1f50228b1838e6aE, symObjAddr: 0x2F900, symBinAddr: 0x10001ED44, symSize: 0x188 }
  - { offset: 0x2CB9F, size: 0x8, addend: 0x0, symName: __ZN3std4path10Components7as_path17hc4f4a7b78ce3c07eE, symObjAddr: 0x2FA88, symBinAddr: 0x10001EECC, symSize: 0x530 }
  - { offset: 0x2D05E, size: 0x8, addend: 0x0, symName: __ZN3std4path10Components25parse_next_component_back17h20507a478b81ee4cE, symObjAddr: 0x2FFB8, symBinAddr: 0x10001F3FC, symSize: 0x120 }
  - { offset: 0x2D246, size: 0x8, addend: 0x0, symName: '__ZN80_$LT$std..path..Components$u20$as$u20$core..iter..traits..iterator..Iterator$GT$4next17h240fe092a2974e44E', symObjAddr: 0x30270, symBinAddr: 0x10001F51C, symSize: 0x364 }
  - { offset: 0x2D58D, size: 0x8, addend: 0x0, symName: '__ZN95_$LT$std..path..Components$u20$as$u20$core..iter..traits..double_ended..DoubleEndedIterator$GT$9next_back17h4ddd74a66a548e1dE', symObjAddr: 0x305D4, symBinAddr: 0x10001F880, symSize: 0x330 }
  - { offset: 0x2D741, size: 0x8, addend: 0x0, symName: '__ZN61_$LT$std..path..Component$u20$as$u20$core..cmp..PartialEq$GT$2eq17h2e109766e714e46fE', symObjAddr: 0x3996C, symBinAddr: 0x1000223D0, symSize: 0x138 }
  - { offset: 0x2DBCD, size: 0x8, addend: 0x0, symName: '__ZN58_$LT$std..io..error..Error$u20$as$u20$core..fmt..Debug$GT$3fmt17h8bf91d1757b352fdE', symObjAddr: 0x24D08, symBinAddr: 0x10001DAF0, symSize: 0x10 }
  - { offset: 0x2DBFE, size: 0x8, addend: 0x0, symName: '__ZN3std2io5error83_$LT$impl$u20$core..fmt..Debug$u20$for$u20$std..io..error..repr_bitpacked..Repr$GT$3fmt17h5a95a85f37e3c23bE', symObjAddr: 0x24FC0, symBinAddr: 0x10001DB00, symSize: 0x294 }
  - { offset: 0x2DE48, size: 0x8, addend: 0x0, symName: '__ZN60_$LT$std..io..error..Error$u20$as$u20$core..fmt..Display$GT$3fmt17hf6832004bfff0787E', symObjAddr: 0x25254, symBinAddr: 0x10001DD94, symSize: 0x204 }
  - { offset: 0x2E0A4, size: 0x8, addend: 0x0, symName: '__ZN62_$LT$std..io..error..ErrorKind$u20$as$u20$core..fmt..Debug$GT$3fmt17hb4e443c8fdea1addE', symObjAddr: 0x39938, symBinAddr: 0x10002239C, symSize: 0x34 }
  - { offset: 0x2E102, size: 0x8, addend: 0x0, symName: '__ZN80_$LT$std..io..Write..write_fmt..Adapter$LT$T$GT$$u20$as$u20$core..fmt..Write$GT$9write_str17hb40acde172c4080dE', symObjAddr: 0x2AD20, symBinAddr: 0x10001EA94, symSize: 0x80 }
  - { offset: 0x2E24D, size: 0x8, addend: 0x0, symName: '__ZN80_$LT$std..io..Write..write_fmt..Adapter$LT$T$GT$$u20$as$u20$core..fmt..Write$GT$9write_str17hccd0b6fc5be13c44E', symObjAddr: 0x2ADA0, symBinAddr: 0x10001EB14, symSize: 0x50 }
  - { offset: 0x2E276, size: 0x8, addend: 0x0, symName: '__ZN80_$LT$std..io..Write..write_fmt..Adapter$LT$T$GT$$u20$as$u20$core..fmt..Write$GT$9write_str17hfa3cc98e01093c8dE', symObjAddr: 0x2ADF0, symBinAddr: 0x10001EB64, symSize: 0xD4 }
  - { offset: 0x2E3CF, size: 0x8, addend: 0x0, symName: __ZN3std2io5Write9write_fmt17h75af97148630d8d3E, symObjAddr: 0x2A9B4, symBinAddr: 0x10001E84C, symSize: 0x124 }
  - { offset: 0x2E60B, size: 0x8, addend: 0x0, symName: __ZN3std2io5Write9write_fmt17h9610cdd27cd3672cE, symObjAddr: 0x2AAD8, symBinAddr: 0x10001E970, symSize: 0x124 }
  - { offset: 0x2E87C, size: 0x8, addend: 0x0, symName: '__ZN3std2io8buffered9bufwriter18BufWriter$LT$W$GT$9flush_buf17h8caf5baab3909c0eE', symObjAddr: 0x24220, symBinAddr: 0x10001D8EC, symSize: 0x204 }
  - { offset: 0x2EDD4, size: 0x8, addend: 0x0, symName: '__ZN3std2io8buffered9bufwriter18BufWriter$LT$W$GT$14write_all_cold17h5452cfd42e3caf48E', symObjAddr: 0x245B0, symBinAddr: 0x100037E78, symSize: 0x120 }
  - { offset: 0x2F1B9, size: 0x8, addend: 0x0, symName: '__ZN61_$LT$$RF$std..io..stdio..Stdout$u20$as$u20$std..io..Write$GT$9write_fmt17h952563a5eefc7f25E', symObjAddr: 0x27EDC, symBinAddr: 0x10001DF98, symSize: 0x18C }
  - { offset: 0x2F5DC, size: 0x8, addend: 0x0, symName: '__ZN61_$LT$std..io..stdio..StdoutLock$u20$as$u20$std..io..Write$GT$9write_all17h0b23f87059158e4bE', symObjAddr: 0x2837C, symBinAddr: 0x10001E124, symSize: 0x258 }
  - { offset: 0x2FC91, size: 0x8, addend: 0x0, symName: __ZN3std2io5stdio6Stderr4lock17ha3df19dd37ed7051E, symObjAddr: 0x288E4, symBinAddr: 0x10001E37C, symSize: 0xF0 }
  - { offset: 0x2FF43, size: 0x8, addend: 0x0, symName: __ZN3std2io5stdio22try_set_output_capture17h6b911b9bf0ee8251E, symObjAddr: 0x29690, symBinAddr: 0x10001E46C, symSize: 0xF4 }
  - { offset: 0x301BD, size: 0x8, addend: 0x0, symName: __ZN3std2io5stdio31print_to_buffer_if_capture_used17h4f9af32139a0ca49E, symObjAddr: 0x29784, symBinAddr: 0x10001E560, symSize: 0x208 }
  - { offset: 0x308B7, size: 0x8, addend: 0x0, symName: __ZN3std2io5stdio6_print17h94312bde6bc5c430E, symObjAddr: 0x29A5C, symBinAddr: 0x10001E768, symSize: 0xE4 }
  - { offset: 0x309E7, size: 0x8, addend: 0x0, symName: '__ZN3std4sync4once4Once15call_once_force28_$u7b$$u7b$closure$u7d$$u7d$17h1fae7beff65a3bbcE', symObjAddr: 0x344FC, symBinAddr: 0x1000201C4, symSize: 0x60 }
  - { offset: 0x30AC7, size: 0x8, addend: 0x0, symName: '__ZN3std4sync4once4Once15call_once_force28_$u7b$$u7b$closure$u7d$$u7d$17hd99e267cf82614efE', symObjAddr: 0x345D0, symBinAddr: 0x100020224, symSize: 0x78 }
  - { offset: 0x30C33, size: 0x8, addend: 0x0, symName: '__ZN3std4sync4once4Once9call_once28_$u7b$$u7b$closure$u7d$$u7d$17h01e395b24de1ff34E', symObjAddr: 0x3411C, symBinAddr: 0x10001FF68, symSize: 0x25C }
  - { offset: 0x314F0, size: 0x8, addend: 0x0, symName: '__ZN3std4sync9once_lock17OnceLock$LT$T$GT$10initialize17h464bd6847401a71eE', symObjAddr: 0x3474C, symBinAddr: 0x100037FA4, symSize: 0x68 }
  - { offset: 0x3151B, size: 0x8, addend: 0x0, symName: '__ZN3std4sync9once_lock17OnceLock$LT$T$GT$10initialize17h464bd6847401a71eE', symObjAddr: 0x3474C, symBinAddr: 0x100037FA4, symSize: 0x68 }
  - { offset: 0x3152F, size: 0x8, addend: 0x0, symName: '__ZN3std4sync9once_lock17OnceLock$LT$T$GT$10initialize17h464bd6847401a71eE', symObjAddr: 0x3474C, symBinAddr: 0x100037FA4, symSize: 0x68 }
  - { offset: 0x31543, size: 0x8, addend: 0x0, symName: '__ZN3std4sync9once_lock17OnceLock$LT$T$GT$10initialize17h464bd6847401a71eE', symObjAddr: 0x3474C, symBinAddr: 0x100037FA4, symSize: 0x68 }
  - { offset: 0x31558, size: 0x8, addend: 0x0, symName: '__ZN3std4sync9once_lock17OnceLock$LT$T$GT$10initialize17h6fce188f1418e336E', symObjAddr: 0x34810, symBinAddr: 0x10003800C, symSize: 0x64 }
  - { offset: 0x31583, size: 0x8, addend: 0x0, symName: '__ZN3std4sync9once_lock17OnceLock$LT$T$GT$10initialize17h6fce188f1418e336E', symObjAddr: 0x34810, symBinAddr: 0x10003800C, symSize: 0x64 }
  - { offset: 0x31597, size: 0x8, addend: 0x0, symName: '__ZN3std4sync9once_lock17OnceLock$LT$T$GT$10initialize17h6fce188f1418e336E', symObjAddr: 0x34810, symBinAddr: 0x10003800C, symSize: 0x64 }
  - { offset: 0x315AB, size: 0x8, addend: 0x0, symName: '__ZN3std4sync9once_lock17OnceLock$LT$T$GT$10initialize17h6fce188f1418e336E', symObjAddr: 0x34810, symBinAddr: 0x10003800C, symSize: 0x64 }
  - { offset: 0x3181A, size: 0x8, addend: 0x0, symName: __ZN3std9panicking11panic_count8increase17hd263eb8da2264c90E, symObjAddr: 0x3838C, symBinAddr: 0x1000213DC, symSize: 0x80 }
  - { offset: 0x3190D, size: 0x8, addend: 0x0, symName: __ZN3std9panicking11panic_count17is_zero_slow_path17h1754b5b62a0b9f50E, symObjAddr: 0x384A4, symBinAddr: 0x1000382C8, symSize: 0x2C }
  - { offset: 0x31A5A, size: 0x8, addend: 0x0, symName: ___rust_drop_panic, symObjAddr: 0x37BAC, symBinAddr: 0x100020EA8, symSize: 0xB8 }
  - { offset: 0x31C4A, size: 0x8, addend: 0x0, symName: ___rust_foreign_exception, symObjAddr: 0x37C64, symBinAddr: 0x100020F60, symSize: 0xB8 }
  - { offset: 0x31E4B, size: 0x8, addend: 0x0, symName: '__ZN3std9panicking12default_hook28_$u7b$$u7b$closure$u7d$$u7d$17h369c7295ef58c5b1E', symObjAddr: 0x38230, symBinAddr: 0x100021280, symSize: 0x15C }
  - { offset: 0x31EE5, size: 0x8, addend: 0x0, symName: __ZN3std9panicking12default_hook17h50746358288a9d6aE, symObjAddr: 0x37FC8, symBinAddr: 0x100021018, symSize: 0x268 }
  - { offset: 0x322BA, size: 0x8, addend: 0x0, symName: _rust_begin_unwind, symObjAddr: 0x38524, symBinAddr: 0x10002145C, symSize: 0x20 }
  - { offset: 0x32320, size: 0x8, addend: 0x0, symName: '__ZN102_$LT$std..panicking..begin_panic_handler..FormatStringPayload$u20$as$u20$core..panic..PanicPayload$GT$8take_box17h2acdf661b618a275E', symObjAddr: 0x38544, symBinAddr: 0x10002147C, symSize: 0x110 }
  - { offset: 0x325B1, size: 0x8, addend: 0x0, symName: '__ZN102_$LT$std..panicking..begin_panic_handler..FormatStringPayload$u20$as$u20$core..panic..PanicPayload$GT$3get17h2b54113a97f90f6bE', symObjAddr: 0x38654, symBinAddr: 0x10002158C, symSize: 0xB0 }
  - { offset: 0x326E7, size: 0x8, addend: 0x0, symName: '__ZN95_$LT$std..panicking..begin_panic_handler..FormatStringPayload$u20$as$u20$core..fmt..Display$GT$3fmt17hac3be7a2cb724666E', symObjAddr: 0x38704, symBinAddr: 0x10002163C, symSize: 0x5C }
  - { offset: 0x327E1, size: 0x8, addend: 0x0, symName: '__ZN99_$LT$std..panicking..begin_panic_handler..StaticStrPayload$u20$as$u20$core..panic..PanicPayload$GT$8take_box17hcb24f453260bcf12E', symObjAddr: 0x38760, symBinAddr: 0x100021698, symSize: 0x50 }
  - { offset: 0x32857, size: 0x8, addend: 0x0, symName: '__ZN99_$LT$std..panicking..begin_panic_handler..StaticStrPayload$u20$as$u20$core..panic..PanicPayload$GT$3get17hda0e5aec36f6a39eE', symObjAddr: 0x387B0, symBinAddr: 0x1000216E8, symSize: 0x18 }
  - { offset: 0x32871, size: 0x8, addend: 0x0, symName: '__ZN99_$LT$std..panicking..begin_panic_handler..StaticStrPayload$u20$as$u20$core..panic..PanicPayload$GT$6as_str17h074c1a2d7e0372ceE', symObjAddr: 0x387C8, symBinAddr: 0x100021700, symSize: 0x18 }
  - { offset: 0x32891, size: 0x8, addend: 0x0, symName: '__ZN92_$LT$std..panicking..begin_panic_handler..StaticStrPayload$u20$as$u20$core..fmt..Display$GT$3fmt17h34b3827fbb54675fE', symObjAddr: 0x387E0, symBinAddr: 0x100021718, symSize: 0x1C }
  - { offset: 0x328AC, size: 0x8, addend: 0x0, symName: '__ZN3std9panicking19begin_panic_handler28_$u7b$$u7b$closure$u7d$$u7d$17h36f15310ecbde379E', symObjAddr: 0x387FC, symBinAddr: 0x100021734, symSize: 0xC4 }
  - { offset: 0x32A03, size: 0x8, addend: 0x0, symName: __ZN3std9panicking14payload_as_str17hd572ab7b51c466f5E, symObjAddr: 0x388C0, symBinAddr: 0x1000217F8, symSize: 0xB0 }
  - { offset: 0x32AED, size: 0x8, addend: 0x0, symName: __ZN3std9panicking20rust_panic_with_hook17h7d795911432661cbE, symObjAddr: 0x38970, symBinAddr: 0x1000218A8, symSize: 0x3E0 }
  - { offset: 0x332EE, size: 0x8, addend: 0x0, symName: _rust_panic, symObjAddr: 0x38E84, symBinAddr: 0x100021C88, symSize: 0x60 }
  - { offset: 0x33411, size: 0x8, addend: 0x0, symName: __ZN3std6thread7current12init_current17hb65b9a11bbbdf9e3E, symObjAddr: 0x1E708, symBinAddr: 0x100037CC4, symSize: 0x17C }
  - { offset: 0x33806, size: 0x8, addend: 0x0, symName: __ZN3std6thread6Thread9new_inner17hf72df5a662df1b9dE, symObjAddr: 0x1F054, symBinAddr: 0x10001D21C, symSize: 0x128 }
  - { offset: 0x339A9, size: 0x8, addend: 0x0, symName: __ZN3std6thread6Thread4name17hb5fa340d9c51efbdE, symObjAddr: 0x1F17C, symBinAddr: 0x10001D344, symSize: 0x44 }
  - { offset: 0x33C69, size: 0x8, addend: 0x0, symName: __ZN3std6thread4park17hdc05006252eed214E, symObjAddr: 0x1EC34, symBinAddr: 0x10001D13C, symSize: 0xE0 }
  - { offset: 0x33E85, size: 0x8, addend: 0x0, symName: __ZN3std6thread8ThreadId3new9exhausted17hb461b008978f84c2E, symObjAddr: 0x1EEB4, symBinAddr: 0x100037E40, symSize: 0x38 }
  - { offset: 0x33FDD, size: 0x8, addend: 0x0, symName: __ZN3std12backtrace_rs9symbolize5gimli7Context3new17h1e91e4e8ca8f4f43E, symObjAddr: 0x45674, symBinAddr: 0x100023EEC, symSize: 0x226C }
  - { offset: 0x384C1, size: 0x8, addend: 0x0, symName: __ZN3std12backtrace_rs9symbolize5gimli7Context11find_frames17hfd1016a68cde14edE, symObjAddr: 0x478E0, symBinAddr: 0x100026158, symSize: 0x3A8 }
  - { offset: 0x3890E, size: 0x8, addend: 0x0, symName: __ZN3std12backtrace_rs9symbolize5gimli5macho6Object5parse17h785faf4743f90f48E, symObjAddr: 0x4A578, symBinAddr: 0x100028DC0, symSize: 0xC78 }
  - { offset: 0x3A564, size: 0x8, addend: 0x0, symName: __ZN3std12backtrace_rs9symbolize5gimli5macho6Object7section17hd87dc726714e9896E, symObjAddr: 0x4B1F0, symBinAddr: 0x100029A38, symSize: 0x18C }
  - { offset: 0x3A8D7, size: 0x8, addend: 0x0, symName: __ZN3std12backtrace_rs9symbolize5gimli5macho11find_header17h967e7857a577695cE, symObjAddr: 0x4A3A4, symBinAddr: 0x100028BEC, symSize: 0x1D4 }
  - { offset: 0x3AFA2, size: 0x8, addend: 0x0, symName: __ZN3std12backtrace_rs9symbolize5gimli4mmap17h0bd3f9fc60ec7b5cE, symObjAddr: 0x47C88, symBinAddr: 0x100026500, symSize: 0x160 }
  - { offset: 0x3B563, size: 0x8, addend: 0x0, symName: __ZN3std12backtrace_rs9symbolize5gimli7resolve17h59605c61b94de6bdE, symObjAddr: 0x47DE8, symBinAddr: 0x100026660, symSize: 0x258C }
  - { offset: 0x410E3, size: 0x8, addend: 0x0, symName: __ZN3std12backtrace_rs9symbolize6Symbol4name17h757bb3a891f635ceE, symObjAddr: 0x38FC4, symBinAddr: 0x100021CE8, symSize: 0xE4 }
  - { offset: 0x41218, size: 0x8, addend: 0x0, symName: '__ZN79_$LT$std..backtrace_rs..symbolize..SymbolName$u20$as$u20$core..fmt..Display$GT$3fmt17he94ecb4e608d7aaaE', symObjAddr: 0x391E8, symBinAddr: 0x100021DCC, symSize: 0x100 }
  - { offset: 0x4133E, size: 0x8, addend: 0x0, symName: __ZN3std12backtrace_rs9backtrace9libunwind5trace8trace_fn17he8146b547133e35cE, symObjAddr: 0x45638, symBinAddr: 0x100023EB0, symSize: 0x3C }
  - { offset: 0x41411, size: 0x8, addend: 0x0, symName: __ZN3std12backtrace_rs5print17BacktraceFrameFmt21print_raw_with_column17h52f7494d1c550af5E, symObjAddr: 0x393E8, symBinAddr: 0x100021ECC, symSize: 0x4D0 }
  - { offset: 0x41685, size: 0x8, addend: 0x0, symName: __ZN3std2rt19lang_start_internal17h77891a2543177e4bE, symObjAddr: 0x1DC6C, symBinAddr: 0x10001C914, symSize: 0x828 }
  - { offset: 0x4268C, size: 0x8, addend: 0x0, symName: __ZN3std5panic19get_backtrace_style17h1f774776d63cd7d6E, symObjAddr: 0x2F6BC, symBinAddr: 0x10001EC38, symSize: 0x10C }
  - { offset: 0x426AA, size: 0x8, addend: 0x0, symName: __ZN3std5panic19get_backtrace_style17h1f774776d63cd7d6E, symObjAddr: 0x2F6BC, symBinAddr: 0x10001EC38, symSize: 0x10C }
  - { offset: 0x426BF, size: 0x8, addend: 0x0, symName: __ZN3std5panic19get_backtrace_style17h1f774776d63cd7d6E, symObjAddr: 0x2F6BC, symBinAddr: 0x10001EC38, symSize: 0x10C }
  - { offset: 0x42AA8, size: 0x8, addend: 0x0, symName: __ZN3std3env11current_dir17h172f4dc23441f9daE, symObjAddr: 0x20428, symBinAddr: 0x10001D388, symSize: 0x1C0 }
  - { offset: 0x42E42, size: 0x8, addend: 0x0, symName: __ZN3std3env7_var_os17h0a415fbacbc640bdE, symObjAddr: 0x20CD8, symBinAddr: 0x10001D548, symSize: 0x160 }
  - { offset: 0x43101, size: 0x8, addend: 0x0, symName: __ZN3std2fs11OpenOptions5_open17hbf356a9c8f4ab619E, symObjAddr: 0x22E44, symBinAddr: 0x10001D6A8, symSize: 0x244 }
  - { offset: 0x432E8, size: 0x8, addend: 0x0, symName: __ZN3std5alloc24default_alloc_error_hook17h5cca8f42fb77b5beE, symObjAddr: 0x378B4, symBinAddr: 0x100020BB0, symSize: 0x13C }
  - { offset: 0x43520, size: 0x8, addend: 0x0, symName: ___rdl_alloc, symObjAddr: 0x379F0, symBinAddr: 0x100020CEC, symSize: 0x6C }
  - { offset: 0x435AE, size: 0x8, addend: 0x0, symName: ___rdl_dealloc, symObjAddr: 0x37A5C, symBinAddr: 0x100020D58, symSize: 0x10 }
  - { offset: 0x435DA, size: 0x8, addend: 0x0, symName: ___rdl_realloc, symObjAddr: 0x37A6C, symBinAddr: 0x100020D68, symSize: 0xB0 }
  - { offset: 0x436D4, size: 0x8, addend: 0x0, symName: ___rdl_alloc_zeroed, symObjAddr: 0x37B1C, symBinAddr: 0x100020E18, symSize: 0x90 }
  - { offset: 0x43784, size: 0x8, addend: 0x0, symName: __ZN3std5alloc8rust_oom17ha54d832161426ec7E, symObjAddr: 0x45544, symBinAddr: 0x100023E6C, symSize: 0x2C }
  - { offset: 0x437CF, size: 0x8, addend: 0x0, symName: ___rg_oom, symObjAddr: 0x45570, symBinAddr: 0x100023E98, symSize: 0x18 }
  - { offset: 0x4387E, size: 0x8, addend: 0x0, symName: '__ZN9addr2line8function17Function$LT$R$GT$14parse_children17h5a96da23ad314619E', symObjAddr: 0x1C9D0, symBinAddr: 0x10001B6DC, symSize: 0x1084 }
  - { offset: 0x44D51, size: 0x8, addend: 0x0, symName: __ZN9addr2line8function10name_entry17h60ce7a95dfc3cfa2E, symObjAddr: 0x1C668, symBinAddr: 0x10001B374, symSize: 0x368 }
  - { offset: 0x45164, size: 0x8, addend: 0x0, symName: __ZN9addr2line8function9name_attr17h8910c26a4607af82E, symObjAddr: 0x1DA54, symBinAddr: 0x10001C760, symSize: 0x1B4 }
  - { offset: 0x452E9, size: 0x8, addend: 0x0, symName: __ZN9addr2line11render_file17h9f078ff6f661a719E, symObjAddr: 0x18A38, symBinAddr: 0x100017744, symSize: 0x4B8 }
  - { offset: 0x45B6E, size: 0x8, addend: 0x0, symName: '__ZN9addr2line16Context$LT$R$GT$9find_unit17h02e652107e14180dE', symObjAddr: 0x18EF0, symBinAddr: 0x100017BFC, symSize: 0x168 }
  - { offset: 0x45D65, size: 0x8, addend: 0x0, symName: '__ZN9addr2line16ResUnit$LT$R$GT$25find_function_or_location17h88e9cf0d105a9d5cE', symObjAddr: 0x19058, symBinAddr: 0x100017D64, symSize: 0x3B4 }
  - { offset: 0x46183, size: 0x8, addend: 0x0, symName: '__ZN9addr2line16ResUnit$LT$R$GT$25find_function_or_location28_$u7b$$u7b$closure$u7d$$u7d$17hf794ef008246ce60E', symObjAddr: 0x1940C, symBinAddr: 0x100018118, symSize: 0x16F8 }
  - { offset: 0x48D07, size: 0x8, addend: 0x0, symName: '__ZN9addr2line18FrameIter$LT$R$GT$4next17h5d9dc218a3d70785E', symObjAddr: 0x1AB04, symBinAddr: 0x100019810, symSize: 0x2FC }
  - { offset: 0x491BD, size: 0x8, addend: 0x0, symName: '__ZN9addr2line30LoopingLookup$LT$T$C$L$C$F$GT$10new_lookup17h69ec4693d316778dE', symObjAddr: 0x1AE00, symBinAddr: 0x100019B0C, symSize: 0x404 }
  - { offset: 0x496A0, size: 0x8, addend: 0x0, symName: __ZN9addr2line5Lines5parse17h239c9d0fb9e4388cE, symObjAddr: 0x1B204, symBinAddr: 0x100019F10, symSize: 0x1464 }
  - { offset: 0x4C2C1, size: 0x8, addend: 0x0, symName: __ZN5gimli4read6reader6Reader11read_offset17h507167eba07c55b2E, symObjAddr: 0x1688C, symBinAddr: 0x100015B94, symSize: 0xBC }
  - { offset: 0x4C4FB, size: 0x8, addend: 0x0, symName: __ZN5gimli4read6reader6Reader12read_sleb12817h8ea8408dd43930a7E, symObjAddr: 0x16948, symBinAddr: 0x100015C50, symSize: 0x21C }
  - { offset: 0x4C5E6, size: 0x8, addend: 0x0, symName: __ZN5gimli4read6reader6Reader12read_uleb12817h3f9bded8998600a1E, symObjAddr: 0x16B64, symBinAddr: 0x100015E6C, symSize: 0xB0 }
  - { offset: 0x4C699, size: 0x8, addend: 0x0, symName: __ZN5gimli4read6reader6Reader17read_sized_offset17h7fb8b8082a308758E, symObjAddr: 0x16C14, symBinAddr: 0x100015F1C, symSize: 0xEC }
  - { offset: 0x4CAC2, size: 0x8, addend: 0x0, symName: '__ZN5gimli4read4unit32AttributeValue$LT$R$C$Offset$GT$11udata_value17h78a0cae784eb90bbE', symObjAddr: 0x13DF8, symBinAddr: 0x100013100, symSize: 0x90 }
  - { offset: 0x4CB17, size: 0x8, addend: 0x0, symName: __ZN5gimli4read4unit15parse_attribute17h948770c1726d773bE, symObjAddr: 0x120E0, symBinAddr: 0x1000113E8, symSize: 0xF68 }
  - { offset: 0x4F755, size: 0x8, addend: 0x0, symName: __ZN5gimli4read4unit15skip_attributes17hf7d782d82a91ce5dE, symObjAddr: 0x13048, symBinAddr: 0x100012350, symSize: 0x520 }
  - { offset: 0x50161, size: 0x8, addend: 0x0, symName: '__ZN5gimli4read4unit18Attribute$LT$R$GT$5value17hed9fc3bf893aa23aE', symObjAddr: 0x13568, symBinAddr: 0x100012870, symSize: 0x5DC }
  - { offset: 0x506A3, size: 0x8, addend: 0x0, symName: '__ZN5gimli4read4unit22EntriesCursor$LT$R$GT$10next_entry17hd23780b78bf6f453E', symObjAddr: 0x13B44, symBinAddr: 0x100012E4C, symSize: 0x2B4 }
  - { offset: 0x50C0A, size: 0x8, addend: 0x0, symName: '__ZN5gimli4read4unit33DebugInfoUnitHeadersIter$LT$R$GT$4next17h7b27487e1890ae2aE', symObjAddr: 0x13E88, symBinAddr: 0x100013190, symSize: 0x4D4 }
  - { offset: 0x51D69, size: 0x8, addend: 0x0, symName: '__ZN90_$LT$gimli..read..unit..AttributeValue$LT$R$C$Offset$GT$$u20$as$u20$core..clone..Clone$GT$5clone17hac5ae9c9c6c8d42fE', symObjAddr: 0x184D0, symBinAddr: 0x100017294, symSize: 0x68 }
  - { offset: 0x51E7D, size: 0x8, addend: 0x0, symName: __ZN5gimli4read4line13parse_file_v517h64c1bf063e2a127bE, symObjAddr: 0x10FB8, symBinAddr: 0x1000102C0, symSize: 0x278 }
  - { offset: 0x51FF2, size: 0x8, addend: 0x0, symName: __ZN5gimli4read4line15FileEntryFormat5parse17hf3c6024dca6e391dE, symObjAddr: 0x11230, symBinAddr: 0x100010538, symSize: 0x350 }
  - { offset: 0x527FB, size: 0x8, addend: 0x0, symName: __ZN5gimli4read4line15parse_attribute17hcacf4681423038ddE, symObjAddr: 0x11580, symBinAddr: 0x100010888, symSize: 0x868 }
  - { offset: 0x53F86, size: 0x8, addend: 0x0, symName: __ZN5gimli4read4line18parse_directory_v517heb01e2d78153f60bE, symObjAddr: 0x11DE8, symBinAddr: 0x1000110F0, symSize: 0xE8 }
  - { offset: 0x54014, size: 0x8, addend: 0x0, symName: '__ZN5gimli4read4line27FileEntry$LT$R$C$Offset$GT$5parse17hadc56d2b0249308dE', symObjAddr: 0x11ED0, symBinAddr: 0x1000111D8, symSize: 0x210 }
  - { offset: 0x542EC, size: 0x8, addend: 0x0, symName: '__ZN93_$LT$gimli..read..line..LineProgramHeader$LT$R$C$Offset$GT$$u20$as$u20$core..clone..Clone$GT$5clone17h02398f1a99a50a4fE', symObjAddr: 0x18538, symBinAddr: 0x1000172FC, symSize: 0x448 }
  - { offset: 0x54ED0, size: 0x8, addend: 0x0, symName: '__ZN5gimli4read5dwarf14Dwarf$LT$R$GT$11attr_string17h23281c43e7d8666cE', symObjAddr: 0x15FC4, symBinAddr: 0x1000152CC, symSize: 0x1E8 }
  - { offset: 0x556DA, size: 0x8, addend: 0x0, symName: '__ZN5gimli4read5dwarf13Unit$LT$R$GT$3new17h60a6e7428346a71eE', symObjAddr: 0x1435C, symBinAddr: 0x100013664, symSize: 0x1C68 }
  - { offset: 0x5920D, size: 0x8, addend: 0x0, symName: '__ZN5gimli4read5index18UnitIndex$LT$R$GT$5parse17h55b5c12b00c2d27cE', symObjAddr: 0x161AC, symBinAddr: 0x1000154B4, symSize: 0x6E0 }
  - { offset: 0x597D6, size: 0x8, addend: 0x0, symName: '__ZN5gimli4read7aranges30ArangeHeader$LT$R$C$Offset$GT$5parse17h8b32058b43fa7eedE', symObjAddr: 0x16D00, symBinAddr: 0x100016008, symSize: 0x29C }
  - { offset: 0x59FF6, size: 0x8, addend: 0x0, symName: '__ZN5gimli4read8rnglists20RngListIter$LT$R$GT$4next17hed01def4856eca9aE', symObjAddr: 0x16F9C, symBinAddr: 0x1000162A4, symSize: 0xC3C }
  - { offset: 0x5CE61, size: 0x8, addend: 0x0, symName: __ZN6object4read7archive13ArchiveMember5parse17hec8f05bf7f831dc2E, symObjAddr: 0x18094, symBinAddr: 0x100016EFC, symSize: 0x2E0 }
  - { offset: 0x5D3E1, size: 0x8, addend: 0x0, symName: __ZN6object4read7archive23parse_bsd_extended_name17hcd252cd855568d2fE, symObjAddr: 0x18374, symBinAddr: 0x1000171DC, symSize: 0xB8 }
  - { offset: 0x5DA76, size: 0x8, addend: 0x0, symName: _OUTLINED_FUNCTION_0, symObjAddr: 0x4B37C, symBinAddr: 0x100029BC4, symSize: 0x24 }
  - { offset: 0x5DA8D, size: 0x8, addend: 0x0, symName: _OUTLINED_FUNCTION_1, symObjAddr: 0x4B3A0, symBinAddr: 0x100029BE8, symSize: 0x8 }
  - { offset: 0x5DAA4, size: 0x8, addend: 0x0, symName: _OUTLINED_FUNCTION_2, symObjAddr: 0x4B3A8, symBinAddr: 0x100029BF0, symSize: 0x8 }
  - { offset: 0x5DABB, size: 0x8, addend: 0x0, symName: _OUTLINED_FUNCTION_3, symObjAddr: 0x4B3B0, symBinAddr: 0x100029BF8, symSize: 0x8 }
  - { offset: 0x5DAD2, size: 0x8, addend: 0x0, symName: _OUTLINED_FUNCTION_4, symObjAddr: 0x4B3B8, symBinAddr: 0x100029C00, symSize: 0x8 }
  - { offset: 0x5DAE9, size: 0x8, addend: 0x0, symName: _OUTLINED_FUNCTION_5, symObjAddr: 0x4B3C0, symBinAddr: 0x100029C08, symSize: 0xC }
  - { offset: 0x5DB00, size: 0x8, addend: 0x0, symName: _OUTLINED_FUNCTION_6, symObjAddr: 0x4B3CC, symBinAddr: 0x100029C14, symSize: 0xC }
  - { offset: 0x5DB17, size: 0x8, addend: 0x0, symName: _OUTLINED_FUNCTION_7, symObjAddr: 0x4B3D8, symBinAddr: 0x100029C20, symSize: 0xC }
  - { offset: 0x5DB4C, size: 0x8, addend: 0x0, symName: '__ZN4core3ptr49drop_in_place$LT$panic_unwind..imp..Exception$GT$17hed54968f30dd5290E', symObjAddr: 0x0, symBinAddr: 0x100029C2C, symSize: 0x78 }
  - { offset: 0x5DB70, size: 0x8, addend: 0x0, symName: '__ZN4core3ptr49drop_in_place$LT$panic_unwind..imp..Exception$GT$17hed54968f30dd5290E', symObjAddr: 0x0, symBinAddr: 0x100029C2C, symSize: 0x78 }
  - { offset: 0x5DC75, size: 0x8, addend: 0x0, symName: '__ZN4core3ptr74drop_in_place$LT$alloc..boxed..Box$LT$panic_unwind..imp..Exception$GT$$GT$17h6b9081c1409d55c1E', symObjAddr: 0x78, symBinAddr: 0x100029CA4, symSize: 0x8C }
  - { offset: 0x5DF38, size: 0x8, addend: 0x0, symName: __ZN12panic_unwind3imp5panic17exception_cleanup17hc2dfc11f5b65ae4bE, symObjAddr: 0x214, symBinAddr: 0x100029E40, symSize: 0x18 }
  - { offset: 0x5DF53, size: 0x8, addend: 0x0, symName: ___rust_panic_cleanup, symObjAddr: 0x104, symBinAddr: 0x100029D30, symSize: 0x68 }
  - { offset: 0x5DFF4, size: 0x8, addend: 0x0, symName: ___rust_start_panic, symObjAddr: 0x16C, symBinAddr: 0x100029D98, symSize: 0xA8 }
  - { offset: 0x5E148, size: 0x8, addend: 0x0, symName: __ZN6memchr6memchr8fallback6memchr17h9a7d91b4f82895aaE, symObjAddr: 0x68, symBinAddr: 0x10002A1A4, symSize: 0x148 }
  - { offset: 0x5E15F, size: 0x8, addend: 0x0, symName: __ZN6memchr6memchr8fallback6memchr17h9a7d91b4f82895aaE, symObjAddr: 0x68, symBinAddr: 0x10002A1A4, symSize: 0x148 }
  - { offset: 0x5E249, size: 0x8, addend: 0x0, symName: __ZN6memchr6memchr8fallback7memchr217h38dab6640d5cf3f6E, symObjAddr: 0x1B0, symBinAddr: 0x10002A2EC, symSize: 0x154 }
  - { offset: 0x5E266, size: 0x8, addend: 0x0, symName: __ZN6memchr6memchr8fallback7memchr217h38dab6640d5cf3f6E, symObjAddr: 0x1B0, symBinAddr: 0x10002A2EC, symSize: 0x154 }
  - { offset: 0x5E472, size: 0x8, addend: 0x0, symName: '__ZN69_$LT$core..alloc..layout..LayoutError$u20$as$u20$core..fmt..Debug$GT$3fmt17h38f65cacd4e5603aE', symObjAddr: 0xFC, symBinAddr: 0x1000324C0, symSize: 0x20 }
  - { offset: 0x5E77E, size: 0x8, addend: 0x0, symName: __ZN5alloc7raw_vec17capacity_overflow17h6035597745bd01e1E, symObjAddr: 0x11C, symBinAddr: 0x1000324E0, symSize: 0x38 }
  - { offset: 0x5E82E, size: 0x8, addend: 0x0, symName: '__ZN5alloc7raw_vec20RawVecInner$LT$A$GT$7reserve21do_reserve_and_handle17h02645e5a46a7b399E', symObjAddr: 0x1F4, symBinAddr: 0x1000386B4, symSize: 0xA0 }
  - { offset: 0x5E943, size: 0x8, addend: 0x0, symName: __ZN5alloc7raw_vec11finish_grow17hb0bd977838508dd5E, symObjAddr: 0x294, symBinAddr: 0x100032518, symSize: 0x88 }
  - { offset: 0x5E9B7, size: 0x8, addend: 0x0, symName: __ZN5alloc7raw_vec12handle_error17hbe5ce02d989aad7dE, symObjAddr: 0x31C, symBinAddr: 0x100038754, symSize: 0x14 }
  - { offset: 0x5EA9F, size: 0x8, addend: 0x0, symName: __ZN5alloc5alloc18handle_alloc_error17h0a3050efcb156a76E, symObjAddr: 0x330, symBinAddr: 0x100038768, symSize: 0x18 }
  - { offset: 0x5EB25, size: 0x8, addend: 0x0, symName: '__ZN93_$LT$alloc..collections..btree..mem..replace..PanicGuard$u20$as$u20$core..ops..drop..Drop$GT$4drop17hd9245f00ec3723f9E', symObjAddr: 0xCD0, symBinAddr: 0x1000325A0, symSize: 0xC }
  - { offset: 0x5EC6D, size: 0x8, addend: 0x0, symName: __ZN5alloc6string6String15from_utf8_lossy17hb6a66e2937a0fa0eE, symObjAddr: 0x2ED4, symBinAddr: 0x1000327F8, symSize: 0x228 }
  - { offset: 0x5F203, size: 0x8, addend: 0x0, symName: '__ZN98_$LT$alloc..string..String$u20$as$u20$core..convert..From$LT$alloc..borrow..Cow$LT$str$GT$$GT$$GT$4from17h3362f50b98fe1e8cE', symObjAddr: 0x4C4C, symBinAddr: 0x100032A20, symSize: 0xB4 }
  - { offset: 0x5F428, size: 0x8, addend: 0x0, symName: '__ZN72_$LT$$RF$str$u20$as$u20$alloc..ffi..c_str..CString..new..SpecNewImpl$GT$13spec_new_impl17h37c9772315c87d63E', symObjAddr: 0xD68, symBinAddr: 0x1000325AC, symSize: 0x114 }
  - { offset: 0x5F652, size: 0x8, addend: 0x0, symName: __ZN5alloc3ffi5c_str7CString19_from_vec_unchecked17ha473a1a6d71e3811E, symObjAddr: 0xFC0, symBinAddr: 0x1000326C0, symSize: 0x138 }
  - { offset: 0x5F986, size: 0x8, addend: 0x0, symName: __ZN5alloc4sync32arcinner_layout_for_value_layout17hc2e63e5c4e3c6fa7E, symObjAddr: 0x4FF4, symBinAddr: 0x100032AD4, symSize: 0x74 }
  - { offset: 0x5FCB3, size: 0x8, addend: 0x0, symName: __ZN4core3num23from_str_radix_panic_rt17he45ccaccb55c6404E, symObjAddr: 0x429C, symBinAddr: 0x100032B48, symSize: 0x44 }
  - { offset: 0x5FCE2, size: 0x8, addend: 0x0, symName: __ZN4core3num20from_str_radix_panic17heb1e6b1205d27dc7E, symObjAddr: 0x42E0, symBinAddr: 0x100038780, symSize: 0xC }
  - { offset: 0x5FDDC, size: 0x8, addend: 0x0, symName: '__ZN4core3num21_$LT$impl$u20$u32$GT$14from_str_radix17h721a19915d795d93E', symObjAddr: 0x1557C, symBinAddr: 0x100036B88, symSize: 0x1FC }
  - { offset: 0x5FEF5, size: 0x8, addend: 0x0, symName: '__ZN4core3num62_$LT$impl$u20$core..str..traits..FromStr$u20$for$u20$usize$GT$8from_str17hdd182ed93f0eb039E', symObjAddr: 0x14B40, symBinAddr: 0x100036A9C, symSize: 0xEC }
  - { offset: 0x601F9, size: 0x8, addend: 0x0, symName: __ZN4core5slice5index26slice_start_index_len_fail17h09adaa8af9c45d77E, symObjAddr: 0xDB40, symBinAddr: 0x100038B58, symSize: 0x50 }
  - { offset: 0x60248, size: 0x8, addend: 0x0, symName: __ZN4core5slice5index24slice_end_index_len_fail17hace87fef8ebaa879E, symObjAddr: 0xDB90, symBinAddr: 0x100038BA8, symSize: 0x50 }
  - { offset: 0x60297, size: 0x8, addend: 0x0, symName: __ZN4core5slice5index22slice_index_order_fail17h9da95e3287fe1a73E, symObjAddr: 0xDBE0, symBinAddr: 0x100038BF8, symSize: 0x50 }
  - { offset: 0x60598, size: 0x8, addend: 0x0, symName: __ZN4core5slice6memchr14memchr_aligned17habb95d53ed733198E, symObjAddr: 0xD490, symBinAddr: 0x100034B24, symSize: 0xE8 }
  - { offset: 0x60612, size: 0x8, addend: 0x0, symName: __ZN4core5slice6memchr7memrchr17h7c09f282c8d43a18E, symObjAddr: 0xD578, symBinAddr: 0x100034C0C, symSize: 0x120 }
  - { offset: 0x60750, size: 0x8, addend: 0x0, symName: __ZN4core5slice4sort6stable5drift11sqrt_approx17hcf58ea2718a1a898E, symObjAddr: 0xD698, symBinAddr: 0x100034D2C, symSize: 0x38 }
  - { offset: 0x607CC, size: 0x8, addend: 0x0, symName: __ZN4core5slice4sort6shared9smallsort22panic_on_ord_violation17hf75f95b80e6d7464E, symObjAddr: 0xD6D0, symBinAddr: 0x100038B20, symSize: 0x38 }
  - { offset: 0x60A53, size: 0x8, addend: 0x0, symName: '__ZN42_$LT$str$u20$as$u20$core..fmt..Display$GT$3fmt17h14b09b2136c51b18E', symObjAddr: 0xD108, symBinAddr: 0x100034880, symSize: 0x20 }
  - { offset: 0x60C1F, size: 0x8, addend: 0x0, symName: __ZN4core3fmt9Formatter12pad_integral17h9c8ca8356d09ee41E, symObjAddr: 0xB1A0, symBinAddr: 0x100033A5C, symSize: 0x3D8 }
  - { offset: 0x60EDB, size: 0x8, addend: 0x0, symName: __ZN4core3fmt9Formatter3pad17ha16951b7d2682cf7E, symObjAddr: 0xB5F4, symBinAddr: 0x100033EB0, symSize: 0x37C }
  - { offset: 0x61392, size: 0x8, addend: 0x0, symName: __ZN4core3fmt9Formatter9write_str17h63c3ec7427df42c3E, symObjAddr: 0xBDC8, symBinAddr: 0x10003422C, symSize: 0x1C }
  - { offset: 0x613A5, size: 0x8, addend: 0x0, symName: __ZN4core3fmt9Formatter12debug_struct17h69b8155eb75b69d7E, symObjAddr: 0xBDE4, symBinAddr: 0x100034248, symSize: 0x3C }
  - { offset: 0x613E3, size: 0x8, addend: 0x0, symName: __ZN4core3fmt9Formatter26debug_struct_field1_finish17h7d5c60d1c38fd9a8E, symObjAddr: 0xBE20, symBinAddr: 0x100034284, symSize: 0xD0 }
  - { offset: 0x614B8, size: 0x8, addend: 0x0, symName: __ZN4core3fmt9Formatter26debug_struct_field2_finish17h74739c5309b72b6dE, symObjAddr: 0xBEF0, symBinAddr: 0x100034354, symSize: 0x104 }
  - { offset: 0x6158D, size: 0x8, addend: 0x0, symName: __ZN4core3fmt9Formatter11debug_tuple17h9180a6a45d78fb65E, symObjAddr: 0xC4F8, symBinAddr: 0x100034458, symSize: 0x50 }
  - { offset: 0x615E0, size: 0x8, addend: 0x0, symName: __ZN4core3fmt9Formatter10debug_list17h532916e595297b31E, symObjAddr: 0xCC2C, symBinAddr: 0x1000344A8, symSize: 0x48 }
  - { offset: 0x61680, size: 0x8, addend: 0x0, symName: __ZN4core3fmt8builders11DebugStruct5field17h7ff8e911eb188324E, symObjAddr: 0x80DC, symBinAddr: 0x10003323C, symSize: 0x1C4 }
  - { offset: 0x61883, size: 0x8, addend: 0x0, symName: __ZN4core3fmt8builders11DebugStruct6finish17h04604717d5347e9cE, symObjAddr: 0x8364, symBinAddr: 0x100033400, symSize: 0x80 }
  - { offset: 0x6197D, size: 0x8, addend: 0x0, symName: '__ZN68_$LT$core..fmt..builders..PadAdapter$u20$as$u20$core..fmt..Write$GT$9write_str17hd65d345e1b6f891dE', symObjAddr: 0x7E0C, symBinAddr: 0x100032F6C, symSize: 0x250 }
  - { offset: 0x61BF9, size: 0x8, addend: 0x0, symName: '__ZN68_$LT$core..fmt..builders..PadAdapter$u20$as$u20$core..fmt..Write$GT$10write_char17h96017e9fc4faedcaE', symObjAddr: 0x805C, symBinAddr: 0x1000331BC, symSize: 0x80 }
  - { offset: 0x61C71, size: 0x8, addend: 0x0, symName: __ZN4core3fmt8builders10DebugTuple5field17h9d50a3632f077675E, symObjAddr: 0x83E4, symBinAddr: 0x100033480, symSize: 0x15C }
  - { offset: 0x61E08, size: 0x8, addend: 0x0, symName: __ZN4core3fmt8builders10DebugTuple6finish17h33008b9c152709edE, symObjAddr: 0x8600, symBinAddr: 0x1000335DC, symSize: 0xB0 }
  - { offset: 0x61F40, size: 0x8, addend: 0x0, symName: __ZN4core3fmt8builders8DebugSet5entry17h9fcf40d66ceb972aE, symObjAddr: 0x86B0, symBinAddr: 0x10003368C, symSize: 0x150 }
  - { offset: 0x620E9, size: 0x8, addend: 0x0, symName: __ZN4core3fmt8builders9DebugList6finish17h3d36d9a522031b21E, symObjAddr: 0x89D8, symBinAddr: 0x1000337DC, symSize: 0x4C }
  - { offset: 0x62171, size: 0x8, addend: 0x0, symName: '__ZN57_$LT$core..fmt..Formatter$u20$as$u20$core..fmt..Write$GT$10write_char17h468bea102974991dE', symObjAddr: 0xCD14, symBinAddr: 0x1000344F0, symSize: 0x1C }
  - { offset: 0x621A2, size: 0x8, addend: 0x0, symName: __ZN4core3fmt5Write9write_fmt17h2a28941d818aae51E, symObjAddr: 0xAF00, symBinAddr: 0x100033828, symSize: 0x1C }
  - { offset: 0x622A7, size: 0x8, addend: 0x0, symName: '__ZN4core3fmt3num52_$LT$impl$u20$core..fmt..LowerHex$u20$for$u20$i8$GT$3fmt17h4ed169e6230ce018E', symObjAddr: 0x184FC, symBinAddr: 0x100036D84, symSize: 0x9C }
  - { offset: 0x623A0, size: 0x8, addend: 0x0, symName: '__ZN4core3fmt3num52_$LT$impl$u20$core..fmt..UpperHex$u20$for$u20$i8$GT$3fmt17h72e63b61ef78fbc7E', symObjAddr: 0x18598, symBinAddr: 0x100036E20, symSize: 0x9C }
  - { offset: 0x624C2, size: 0x8, addend: 0x0, symName: '__ZN4core3fmt3num3imp51_$LT$impl$u20$core..fmt..Display$u20$for$u20$u8$GT$3fmt17hc314125b2b3860f7E', symObjAddr: 0x196F0, symBinAddr: 0x10003733C, symSize: 0xA8 }
  - { offset: 0x62566, size: 0x8, addend: 0x0, symName: '__ZN4core3fmt3num3imp52_$LT$impl$u20$core..fmt..Display$u20$for$u20$u32$GT$3fmt17hd6c809fd627347a7E', symObjAddr: 0x19D28, symBinAddr: 0x100037644, symSize: 0x13C }
  - { offset: 0x6262E, size: 0x8, addend: 0x0, symName: '__ZN4core3fmt3num3imp52_$LT$impl$u20$core..fmt..Display$u20$for$u20$u64$GT$3fmt17h933792634702d73eE', symObjAddr: 0x1A0D8, symBinAddr: 0x100037780, symSize: 0x13C }
  - { offset: 0x626FC, size: 0x8, addend: 0x0, symName: '__ZN4core3fmt3num3imp52_$LT$impl$u20$core..fmt..Display$u20$for$u20$i32$GT$3fmt17h8cf700f0ed8d8c38E', symObjAddr: 0x19AC8, symBinAddr: 0x1000373E4, symSize: 0x260 }
  - { offset: 0x62853, size: 0x8, addend: 0x0, symName: '__ZN4core3fmt3num53_$LT$impl$u20$core..fmt..LowerHex$u20$for$u20$i32$GT$3fmt17h586e9ec438f7201eE', symObjAddr: 0x1899C, symBinAddr: 0x100036EBC, symSize: 0x9C }
  - { offset: 0x62956, size: 0x8, addend: 0x0, symName: '__ZN4core3fmt3num53_$LT$impl$u20$core..fmt..UpperHex$u20$for$u20$i32$GT$3fmt17hc8e8f19989b6b712E', symObjAddr: 0x18A38, symBinAddr: 0x100036F58, symSize: 0x9C }
  - { offset: 0x62A47, size: 0x8, addend: 0x0, symName: '__ZN4core3fmt3num53_$LT$impl$u20$core..fmt..LowerHex$u20$for$u20$i64$GT$3fmt17h86eef6960ac5e14cE', symObjAddr: 0x18BEC, symBinAddr: 0x100036FF4, symSize: 0x9C }
  - { offset: 0x62B4A, size: 0x8, addend: 0x0, symName: '__ZN4core3fmt3num53_$LT$impl$u20$core..fmt..UpperHex$u20$for$u20$i64$GT$3fmt17hfd687de257dcf426E', symObjAddr: 0x18C88, symBinAddr: 0x100037090, symSize: 0x9C }
  - { offset: 0x62C41, size: 0x8, addend: 0x0, symName: '__ZN4core3fmt3num52_$LT$impl$u20$core..fmt..Debug$u20$for$u20$usize$GT$3fmt17hbcf940b80966635eE', symObjAddr: 0x193B8, symBinAddr: 0x10003712C, symSize: 0x210 }
  - { offset: 0x62DDA, size: 0x8, addend: 0x0, symName: '__ZN59_$LT$core..fmt..Arguments$u20$as$u20$core..fmt..Display$GT$3fmt17h09b75bc392b800bdE', symObjAddr: 0xAF88, symBinAddr: 0x100033844, symSize: 0x18 }
  - { offset: 0x62E08, size: 0x8, addend: 0x0, symName: __ZN4core3fmt5write17h381c0b0ce6ab972aE, symObjAddr: 0xAFA0, symBinAddr: 0x10003385C, symSize: 0x200 }
  - { offset: 0x63017, size: 0x8, addend: 0x0, symName: __ZN4core3fmt9Formatter12pad_integral12write_prefix17hb4537e90003b1c64E, symObjAddr: 0xB578, symBinAddr: 0x100033E34, symSize: 0x7C }
  - { offset: 0x6306E, size: 0x8, addend: 0x0, symName: '__ZN40_$LT$str$u20$as$u20$core..fmt..Debug$GT$3fmt17heb25a21cd747bc08E', symObjAddr: 0xCD94, symBinAddr: 0x10003450C, symSize: 0x374 }
  - { offset: 0x63557, size: 0x8, addend: 0x0, symName: '__ZN41_$LT$char$u20$as$u20$core..fmt..Debug$GT$3fmt17h401477d182c99069E', symObjAddr: 0xD128, symBinAddr: 0x1000348A0, symSize: 0xAC }
  - { offset: 0x63654, size: 0x8, addend: 0x0, symName: '__ZN43_$LT$char$u20$as$u20$core..fmt..Display$GT$3fmt17h7c940c11a1c12216E', symObjAddr: 0xD1D4, symBinAddr: 0x10003494C, symSize: 0xF8 }
  - { offset: 0x63704, size: 0x8, addend: 0x0, symName: __ZN4core3fmt17pointer_fmt_inner17h1280a504d3575fb5E, symObjAddr: 0xD2CC, symBinAddr: 0x100034A44, symSize: 0xE0 }
  - { offset: 0x6382E, size: 0x8, addend: 0x0, symName: '__ZN42_$LT$$RF$T$u20$as$u20$core..fmt..Debug$GT$3fmt17h6d97b05d09fb71e8E', symObjAddr: 0x1B204, symBinAddr: 0x1000378BC, symSize: 0x1C }
  - { offset: 0x6384E, size: 0x8, addend: 0x0, symName: '__ZN44_$LT$$RF$T$u20$as$u20$core..fmt..Display$GT$3fmt17h0b61412bc7dfb2fbE', symObjAddr: 0x1B260, symBinAddr: 0x1000378D8, symSize: 0x1C }
  - { offset: 0x63927, size: 0x8, addend: 0x0, symName: __ZN4core6option13unwrap_failed17h72fe2175587bb8c5E, symObjAddr: 0x77A0, symBinAddr: 0x1000387D0, symSize: 0x1C }
  - { offset: 0x63941, size: 0x8, addend: 0x0, symName: __ZN4core6option13expect_failed17h8e777ef42d0a5298E, symObjAddr: 0x77BC, symBinAddr: 0x1000387EC, symSize: 0x48 }
  - { offset: 0x63A76, size: 0x8, addend: 0x0, symName: '__ZN71_$LT$core..ops..range..Range$LT$Idx$GT$$u20$as$u20$core..fmt..Debug$GT$3fmt17he394e20c3c86d8aeE', symObjAddr: 0x4478, symBinAddr: 0x100032B8C, symSize: 0x5C }
  - { offset: 0x63D02, size: 0x8, addend: 0x0, symName: __ZN4core6result13unwrap_failed17h6de8f20130c8e837E, symObjAddr: 0x7D2C, symBinAddr: 0x100038AC4, symSize: 0x5C }
  - { offset: 0x63D84, size: 0x8, addend: 0x0, symName: '__ZN63_$LT$core..cell..BorrowMutError$u20$as$u20$core..fmt..Debug$GT$3fmt17h4290f4d74fc8ab6eE', symObjAddr: 0x48CC, symBinAddr: 0x100032BE8, symSize: 0x24 }
  - { offset: 0x63DE0, size: 0x8, addend: 0x0, symName: __ZN4core4cell22panic_already_borrowed17h9870eef644c60881E, symObjAddr: 0x4910, symBinAddr: 0x10003878C, symSize: 0x44 }
  - { offset: 0x63E59, size: 0x8, addend: 0x0, symName: '__ZN4core4char7methods22_$LT$impl$u20$char$GT$16escape_debug_ext17h33afbfaf4d6e3e37E', symObjAddr: 0x4A48, symBinAddr: 0x100032C0C, symSize: 0x260 }
  - { offset: 0x6408D, size: 0x8, addend: 0x0, symName: __ZN4core7unicode12unicode_data15grapheme_extend11lookup_slow17hedff99e0c94151dcE, symObjAddr: 0x1CA4C, symBinAddr: 0x100037918, symSize: 0x174 }
  - { offset: 0x64263, size: 0x8, addend: 0x0, symName: __ZN4core7unicode12unicode_data2cc6lookup17hec50f526397238e7E, symObjAddr: 0x1CA28, symBinAddr: 0x1000378F4, symSize: 0x24 }
  - { offset: 0x642CA, size: 0x8, addend: 0x0, symName: __ZN4core7unicode9printable12is_printable17h5297a2b08c5cd935E, symObjAddr: 0x10DC4, symBinAddr: 0x1000367DC, symSize: 0x2C0 }
  - { offset: 0x64706, size: 0x8, addend: 0x0, symName: __ZN4core3ffi5c_str4CStr19from_bytes_with_nul17ha6805a918b71ae91E, symObjAddr: 0x52F0, symBinAddr: 0x100032E6C, symSize: 0x100 }
  - { offset: 0x647C8, size: 0x8, addend: 0x0, symName: __ZN4core9panicking9panic_fmt17h17b1b80ec02ffd19E, symObjAddr: 0x78F4, symBinAddr: 0x100038834, symSize: 0x20 }
  - { offset: 0x64808, size: 0x8, addend: 0x0, symName: __ZN4core9panicking18panic_nounwind_fmt17h5d86a478a9d7437cE, symObjAddr: 0x7914, symBinAddr: 0x100038854, symSize: 0x3C }
  - { offset: 0x6484B, size: 0x8, addend: 0x0, symName: __ZN4core9panicking5panic17h3dd8bfd18083069aE, symObjAddr: 0x7950, symBinAddr: 0x100038890, symSize: 0x34 }
  - { offset: 0x64879, size: 0x8, addend: 0x0, symName: __ZN4core9panicking14panic_nounwind17he171ad52d328e60bE, symObjAddr: 0x7984, symBinAddr: 0x1000388C4, symSize: 0x3C }
  - { offset: 0x648A7, size: 0x8, addend: 0x0, symName: __ZN4core9panicking26panic_nounwind_nobacktrace17h05165ad8af761b34E, symObjAddr: 0x79C0, symBinAddr: 0x100038900, symSize: 0x3C }
  - { offset: 0x648D5, size: 0x8, addend: 0x0, symName: __ZN4core9panicking18panic_bounds_check17h4fa7ca60df78ab98E, symObjAddr: 0x7A44, symBinAddr: 0x10003893C, symSize: 0x50 }
  - { offset: 0x64904, size: 0x8, addend: 0x0, symName: __ZN4core9panicking19panic_cannot_unwind17h2dd8cd735765e065E, symObjAddr: 0x7B20, symBinAddr: 0x10003898C, symSize: 0x18 }
  - { offset: 0x6491E, size: 0x8, addend: 0x0, symName: __ZN4core9panicking16panic_in_cleanup17h7d6b512a0be4f144E, symObjAddr: 0x7B38, symBinAddr: 0x1000389A4, symSize: 0x18 }
  - { offset: 0x64938, size: 0x8, addend: 0x0, symName: __ZN4core9panicking19assert_failed_inner17h13f6fb8338d443ddE, symObjAddr: 0x7C24, symBinAddr: 0x1000389BC, symSize: 0x108 }
  - { offset: 0x64980, size: 0x8, addend: 0x0, symName: __ZN4core9panicking11panic_const24panic_const_add_overflow17hd90c80c34535d0a2E, symObjAddr: 0x17174, symBinAddr: 0x100038C88, symSize: 0x34 }
  - { offset: 0x649AE, size: 0x8, addend: 0x0, symName: __ZN4core9panicking11panic_const24panic_const_sub_overflow17h511cc04f67e4d3d0E, symObjAddr: 0x171A8, symBinAddr: 0x100038CBC, symSize: 0x34 }
  - { offset: 0x649DC, size: 0x8, addend: 0x0, symName: __ZN4core9panicking11panic_const23panic_const_div_by_zero17h28e725055c25cf41E, symObjAddr: 0x17314, symBinAddr: 0x100038CF0, symSize: 0x34 }
  - { offset: 0x64A0A, size: 0x8, addend: 0x0, symName: __ZN4core9panicking11panic_const23panic_const_rem_by_zero17ha7d672a58e298a80E, symObjAddr: 0x17348, symBinAddr: 0x100038D24, symSize: 0x34 }
  - { offset: 0x64B85, size: 0x8, addend: 0x0, symName: __ZN4core3str7pattern11StrSearcher3new17hfca02cff95d003e5E, symObjAddr: 0xEF0C, symBinAddr: 0x100035974, symSize: 0x904 }
  - { offset: 0x64EE4, size: 0x8, addend: 0x0, symName: __ZN4core3str5count14do_count_chars17h1f0379b286e82092E, symObjAddr: 0xE280, symBinAddr: 0x100034FA8, symSize: 0x71C }
  - { offset: 0x65212, size: 0x8, addend: 0x0, symName: __ZN4core3str5count23char_count_general_case17h91e5cabbf2a268c1E, symObjAddr: 0xE99C, symBinAddr: 0x1000356C4, symSize: 0x2B0 }
  - { offset: 0x653BA, size: 0x8, addend: 0x0, symName: __ZN4core3str6traits23str_index_overflow_fail17he1389dc79559519aE, symObjAddr: 0xEED8, symBinAddr: 0x100038C48, symSize: 0x34 }
  - { offset: 0x653EE, size: 0x8, addend: 0x0, symName: __ZN4core3str8converts9from_utf817h8618b5e75c2ddea2E, symObjAddr: 0xDDF8, symBinAddr: 0x100034D64, symSize: 0x244 }
  - { offset: 0x6546E, size: 0x8, addend: 0x0, symName: '__ZN87_$LT$core..str..lossy..Utf8Chunks$u20$as$u20$core..iter..traits..iterator..Iterator$GT$4next17h6d9ee11157c784d9E', symObjAddr: 0xFBF4, symBinAddr: 0x100036278, symSize: 0x1DC }
  - { offset: 0x65667, size: 0x8, addend: 0x0, symName: __ZN4core3str16slice_error_fail17hcaf6c10690349a36E, symObjAddr: 0xFE9C, symBinAddr: 0x100038C7C, symSize: 0xC }
  - { offset: 0x65680, size: 0x8, addend: 0x0, symName: __ZN4core3str19slice_error_fail_rt17hc9374d178fc3b440E, symObjAddr: 0xFEDC, symBinAddr: 0x100036454, symSize: 0x388 }
...
